(ieditor
Data
p1
(dp2
S'tiles'
p3
(dp4
S'f'
(itile
Tile
p5
(dp6
S'destroyable'
p7
I00
sS'passable'
p8
I01
sS'ch'
p9
(ichar
Char
p10
(dp11
S'color'
p12
I0
sS'symbol'
p13
S'.'
sbsS'see_through'
p14
I01
sS'name'
p15
S'Dungeon floor'
p16
sbsS'us'
p17
(itile
Tile
p18
(dp19
S'destroyable'
p20
I01
sS'passable'
p21
I01
sS'ch'
p22
(ichar
Char
p23
(dp24
S'color'
p25
I0
sS'symbol'
p26
S'<'
sbsS'see_through'
p27
I01
sS'name'
p28
S'Up staircase'
p29
sbsS'r'
(itile
Tile
p30
(dp31
g20
I01
sg21
I00
sg22
(ichar
Char
p32
(dp33
S'color'
p34
I0
sS'symbol'
p35
S'#'
sbsg27
I00
sg28
S'Dungeon rock'
p36
sbsS'u'
(itile
Tile
p37
(dp38
g20
I00
sg21
I00
sg22
(ichar
Char
p39
(dp40
g25
I0
sg26
S' '
sbsg27
I00
sg28
S'You have not seen this place yet'
p41
sbsS'w'
(itile
Tile
p42
(dp43
g7
I01
sg8
I00
sg9
(ichar
Char
p44
(dp45
S'color'
p46
I2097408
sS'symbol'
p47
S'#'
sbsg14
I00
sg15
S'Wall'
p48
sbsS'ds'
p49
(itile
Tile
p50
(dp51
g20
I01
sg21
I01
sg22
(ichar
Char
p52
(dp53
g25
I0
sg26
S'>'
sbsg27
I01
sg28
S'Down staircase'
p54
sbssS'levels'
p55
(dp56
S'pyramid'
p57
(imap
Map
p58
(dp59
S'map'
p60
(lp61
(lp62
(isquare
Square
p63
(dp64
S'y'
I0
sS'x'
I0
sS'memory_tile'
p65
(itile
Tile
p66
(dp67
S'destroyable'
p68
I00
sS'passable'
p69
I00
sS'ch'
p70
(ichar
Char
p71
(dp72
S'color'
p73
I0
sS'symbol'
p74
S' '
sbsS'see_through'
p75
I00
sS'name'
p76
S'You have not seen this place yet'
p77
sbsS'tile'
p78
(itile
Tile
p79
(dp80
g68
I01
sg69
I00
sg70
(ichar
Char
p81
(dp82
g73
I0
sg74
S'#'
sbsg75
I00
sg76
S'Dungeon rock'
p83
sbsS'creature'
p84
Nsba(isquare
Square
p85
(dp86
S'y'
I0
sS'x'
I1
sg65
g66
sg78
g79
sg84
Nsba(isquare
Square
p87
(dp88
S'y'
I0
sS'x'
I2
sg65
g66
sg78
g79
sg84
Nsba(isquare
Square
p89
(dp90
S'y'
I0
sS'x'
I3
sg65
g66
sg78
g79
sg84
Nsba(isquare
Square
p91
(dp92
S'y'
I0
sS'x'
I4
sg65
g66
sg78
g79
sg84
Nsba(isquare
Square
p93
(dp94
S'y'
I0
sS'x'
I5
sg65
g66
sg78
g79
sg84
Nsba(isquare
Square
p95
(dp96
S'y'
I0
sS'x'
I6
sg65
g66
sg78
g79
sg84
Nsba(isquare
Square
p97
(dp98
S'y'
I0
sS'x'
I7
sg65
g66
sg78
g79
sg84
Nsba(isquare
Square
p99
(dp100
S'y'
I0
sS'x'
I8
sg65
g66
sg78
g79
sg84
Nsba(isquare
Square
p101
(dp102
S'y'
I0
sS'x'
I9
sg65
g66
sg78
g79
sg84
Nsba(isquare
Square
p103
(dp104
S'y'
I0
sS'x'
I10
sg65
g66
sg78
g79
sg84
Nsba(isquare
Square
p105
(dp106
S'y'
I0
sS'x'
I11
sg65
g66
sg78
g79
sg84
Nsba(isquare
Square
p107
(dp108
S'y'
I0
sS'x'
I12
sg65
g66
sg78
g79
sg84
Nsba(isquare
Square
p109
(dp110
S'y'
I0
sS'x'
I13
sg65
g66
sg78
g79
sg84
Nsba(isquare
Square
p111
(dp112
S'y'
I0
sS'x'
I14
sg65
g66
sg78
g79
sg84
Nsba(isquare
Square
p113
(dp114
S'y'
I0
sS'x'
I15
sg65
g66
sg78
g79
sg84
Nsba(isquare
Square
p115
(dp116
S'y'
I0
sS'x'
I16
sg65
g66
sg78
g79
sg84
Nsba(isquare
Square
p117
(dp118
S'y'
I0
sS'x'
I17
sg65
g66
sg78
g79
sg84
Nsba(isquare
Square
p119
(dp120
S'y'
I0
sS'x'
I18
sg65
g66
sg78
g79
sg84
Nsba(isquare
Square
p121
(dp122
S'y'
I0
sS'x'
I19
sg65
g66
sg78
g79
sg84
Nsba(isquare
Square
p123
(dp124
S'y'
I0
sS'x'
I20
sg65
g66
sg78
g79
sg84
Nsba(isquare
Square
p125
(dp126
S'y'
I0
sS'x'
I21
sg65
g66
sg78
g79
sg84
Nsba(isquare
Square
p127
(dp128
S'y'
I0
sS'x'
I22
sg65
g66
sg78
g79
sg84
Nsba(isquare
Square
p129
(dp130
S'y'
I0
sS'x'
I23
sg65
g66
sg78
g79
sg84
Nsba(isquare
Square
p131
(dp132
S'y'
I0
sS'x'
I24
sg65
g66
sg78
g79
sg84
Nsba(isquare
Square
p133
(dp134
S'y'
I0
sS'x'
I25
sg65
g66
sg78
g79
sg84
Nsba(isquare
Square
p135
(dp136
S'y'
I0
sS'x'
I26
sg65
g66
sg78
g79
sg84
Nsba(isquare
Square
p137
(dp138
S'y'
I0
sS'x'
I27
sg65
g66
sg78
g79
sg84
Nsba(isquare
Square
p139
(dp140
S'y'
I0
sS'x'
I28
sg65
g66
sg78
g79
sg84
Nsba(isquare
Square
p141
(dp142
S'y'
I0
sS'x'
I29
sg65
g66
sg78
g79
sg84
Nsba(isquare
Square
p143
(dp144
S'y'
I0
sS'x'
I30
sg65
g66
sg78
g79
sg84
Nsba(isquare
Square
p145
(dp146
S'y'
I0
sS'x'
I31
sg65
g66
sg78
g79
sg84
Nsba(isquare
Square
p147
(dp148
S'y'
I0
sS'x'
I32
sg65
g66
sg78
g79
sg84
Nsba(isquare
Square
p149
(dp150
S'y'
I0
sS'x'
I33
sg65
g66
sg78
g79
sg84
Nsba(isquare
Square
p151
(dp152
S'y'
I0
sS'x'
I34
sg65
g66
sg78
g79
sg84
Nsba(isquare
Square
p153
(dp154
S'y'
I0
sS'x'
I35
sg65
g66
sg78
g79
sg84
Nsba(isquare
Square
p155
(dp156
S'y'
I0
sS'x'
I36
sg65
g66
sg78
g79
sg84
Nsba(isquare
Square
p157
(dp158
S'y'
I0
sS'x'
I37
sg65
g66
sg78
g79
sg84
Nsba(isquare
Square
p159
(dp160
S'y'
I0
sS'x'
I38
sg65
g66
sg78
g79
sg84
Nsba(isquare
Square
p161
(dp162
S'y'
I0
sS'x'
I39
sg65
g66
sg78
g79
sg84
Nsba(isquare
Square
p163
(dp164
S'y'
I0
sS'x'
I40
sg65
g66
sg78
g79
sg84
Nsba(isquare
Square
p165
(dp166
S'y'
I0
sS'x'
I41
sg65
g66
sg78
g79
sg84
Nsba(isquare
Square
p167
(dp168
S'y'
I0
sS'x'
I42
sg65
g66
sg78
g79
sg84
Nsba(isquare
Square
p169
(dp170
S'y'
I0
sS'x'
I43
sg65
g66
sg78
g79
sg84
Nsba(isquare
Square
p171
(dp172
S'y'
I0
sS'x'
I44
sg65
g66
sg78
g79
sg84
Nsba(isquare
Square
p173
(dp174
S'y'
I0
sS'x'
I45
sg65
g66
sg78
g79
sg84
Nsba(isquare
Square
p175
(dp176
S'y'
I0
sS'x'
I46
sg65
g66
sg78
g79
sg84
Nsba(isquare
Square
p177
(dp178
S'y'
I0
sS'x'
I47
sg65
g66
sg78
g79
sg84
Nsba(isquare
Square
p179
(dp180
S'y'
I0
sS'x'
I48
sg65
g66
sg78
g79
sg84
Nsba(isquare
Square
p181
(dp182
S'y'
I0
sS'x'
I49
sg65
g66
sg78
g79
sg84
Nsba(isquare
Square
p183
(dp184
S'y'
I0
sS'x'
I50
sg65
g66
sg78
g79
sg84
Nsba(isquare
Square
p185
(dp186
S'y'
I0
sS'x'
I51
sg65
g66
sg78
g79
sg84
Nsba(isquare
Square
p187
(dp188
S'y'
I0
sS'x'
I52
sg65
g66
sg78
g79
sg84
Nsba(isquare
Square
p189
(dp190
S'y'
I0
sS'x'
I53
sg65
g66
sg78
g79
sg84
Nsba(isquare
Square
p191
(dp192
S'y'
I0
sS'x'
I54
sg65
g66
sg78
g79
sg84
Nsba(isquare
Square
p193
(dp194
S'y'
I0
sS'x'
I55
sg65
g66
sg78
g79
sg84
Nsba(isquare
Square
p195
(dp196
S'y'
I0
sS'x'
I56
sg65
g66
sg78
g79
sg84
Nsba(isquare
Square
p197
(dp198
S'y'
I0
sS'x'
I57
sg65
g66
sg78
g79
sg84
Nsba(isquare
Square
p199
(dp200
S'y'
I0
sS'x'
I58
sg65
g66
sg78
g79
sg84
Nsba(isquare
Square
p201
(dp202
S'y'
I0
sS'x'
I59
sg65
g66
sg78
g79
sg84
Nsba(isquare
Square
p203
(dp204
S'y'
I0
sS'x'
I60
sg65
g66
sg78
g79
sg84
Nsba(isquare
Square
p205
(dp206
S'y'
I0
sS'x'
I61
sg65
g66
sg78
g79
sg84
Nsba(isquare
Square
p207
(dp208
S'y'
I0
sS'x'
I62
sg65
g66
sg78
g79
sg84
Nsba(isquare
Square
p209
(dp210
S'y'
I0
sS'x'
I63
sg65
g66
sg78
g79
sg84
Nsba(isquare
Square
p211
(dp212
S'y'
I0
sS'x'
I64
sg65
g66
sg78
g79
sg84
Nsba(isquare
Square
p213
(dp214
S'y'
I0
sS'x'
I65
sg65
g66
sg78
g79
sg84
Nsba(isquare
Square
p215
(dp216
S'y'
I0
sS'x'
I66
sg65
g66
sg78
g79
sg84
Nsba(isquare
Square
p217
(dp218
S'y'
I0
sS'x'
I67
sg65
g66
sg78
g79
sg84
Nsba(isquare
Square
p219
(dp220
S'y'
I0
sS'x'
I68
sg65
g66
sg78
g79
sg84
Nsba(isquare
Square
p221
(dp222
S'y'
I0
sS'x'
I69
sg65
g66
sg78
g79
sg84
Nsba(isquare
Square
p223
(dp224
S'y'
I0
sS'x'
I70
sg65
g66
sg78
g79
sg84
Nsba(isquare
Square
p225
(dp226
S'y'
I0
sS'x'
I71
sg65
g66
sg78
g79
sg84
Nsba(isquare
Square
p227
(dp228
S'y'
I0
sS'x'
I72
sg65
g66
sg78
g79
sg84
Nsba(isquare
Square
p229
(dp230
S'y'
I0
sS'x'
I73
sg65
g66
sg78
g79
sg84
Nsba(isquare
Square
p231
(dp232
S'y'
I0
sS'x'
I74
sg65
g66
sg78
g79
sg84
Nsba(isquare
Square
p233
(dp234
S'y'
I0
sS'x'
I75
sg65
g66
sg78
g79
sg84
Nsba(isquare
Square
p235
(dp236
S'y'
I0
sS'x'
I76
sg65
g66
sg78
g79
sg84
Nsba(isquare
Square
p237
(dp238
S'y'
I0
sS'x'
I77
sg65
g66
sg78
g79
sg84
Nsba(isquare
Square
p239
(dp240
S'y'
I0
sS'x'
I78
sg65
g66
sg78
g79
sg84
Nsba(isquare
Square
p241
(dp242
S'y'
I0
sS'x'
I79
sg65
g66
sg78
g79
sg84
Nsbaa(lp243
(isquare
Square
p244
(dp245
S'y'
I1
sS'x'
I0
sg65
g66
sg78
g79
sg84
Nsba(isquare
Square
p246
(dp247
S'y'
I1
sS'x'
I1
sg65
g66
sg78
g79
sg84
Nsba(isquare
Square
p248
(dp249
S'y'
I1
sS'x'
I2
sg65
g66
sg78
g79
sg84
Nsba(isquare
Square
p250
(dp251
S'y'
I1
sS'x'
I3
sg65
g66
sg78
g79
sg84
Nsba(isquare
Square
p252
(dp253
S'y'
I1
sS'x'
I4
sg65
g66
sg78
g79
sg84
Nsba(isquare
Square
p254
(dp255
S'y'
I1
sS'x'
I5
sg65
g66
sg78
g79
sg84
Nsba(isquare
Square
p256
(dp257
S'y'
I1
sS'x'
I6
sg65
g66
sg78
g79
sg84
Nsba(isquare
Square
p258
(dp259
S'y'
I1
sS'x'
I7
sg65
g66
sg78
g79
sg84
Nsba(isquare
Square
p260
(dp261
S'y'
I1
sS'x'
I8
sg65
g66
sg78
g79
sg84
Nsba(isquare
Square
p262
(dp263
S'y'
I1
sS'x'
I9
sg65
g66
sg78
g79
sg84
Nsba(isquare
Square
p264
(dp265
S'y'
I1
sS'x'
I10
sg65
g66
sg78
g79
sg84
Nsba(isquare
Square
p266
(dp267
S'y'
I1
sS'x'
I11
sg65
g66
sg78
g79
sg84
Nsba(isquare
Square
p268
(dp269
S'y'
I1
sS'x'
I12
sg65
g66
sg78
g79
sg84
Nsba(isquare
Square
p270
(dp271
S'y'
I1
sS'x'
I13
sg65
g66
sg78
g79
sg84
Nsba(isquare
Square
p272
(dp273
S'y'
I1
sS'x'
I14
sg65
g66
sg78
g79
sg84
Nsba(isquare
Square
p274
(dp275
S'y'
I1
sS'x'
I15
sg65
g66
sg78
g79
sg84
Nsba(isquare
Square
p276
(dp277
S'y'
I1
sS'x'
I16
sg65
g66
sg78
g79
sg84
Nsba(isquare
Square
p278
(dp279
S'y'
I1
sS'x'
I17
sg65
g66
sg78
g79
sg84
Nsba(isquare
Square
p280
(dp281
S'y'
I1
sS'x'
I18
sg65
g66
sg78
g79
sg84
Nsba(isquare
Square
p282
(dp283
S'y'
I1
sS'x'
I19
sg65
g66
sg78
g79
sg84
Nsba(isquare
Square
p284
(dp285
S'y'
I1
sS'x'
I20
sg65
g66
sg78
g79
sg84
Nsba(isquare
Square
p286
(dp287
S'y'
I1
sS'x'
I21
sg65
g66
sg78
g79
sg84
Nsba(isquare
Square
p288
(dp289
S'y'
I1
sS'x'
I22
sg65
g66
sg78
g79
sg84
Nsba(isquare
Square
p290
(dp291
S'y'
I1
sS'x'
I23
sg65
g66
sg78
g79
sg84
Nsba(isquare
Square
p292
(dp293
S'y'
I1
sS'x'
I24
sg65
g66
sg78
g79
sg84
Nsba(isquare
Square
p294
(dp295
S'y'
I1
sS'x'
I25
sg65
g66
sg78
g79
sg84
Nsba(isquare
Square
p296
(dp297
S'y'
I1
sS'x'
I26
sg65
g66
sg78
g79
sg84
Nsba(isquare
Square
p298
(dp299
S'y'
I1
sS'x'
I27
sg65
g66
sg78
g79
sg84
Nsba(isquare
Square
p300
(dp301
S'y'
I1
sS'x'
I28
sg65
g66
sg78
g79
sg84
Nsba(isquare
Square
p302
(dp303
S'y'
I1
sS'x'
I29
sg65
g66
sg78
g79
sg84
Nsba(isquare
Square
p304
(dp305
S'y'
I1
sS'x'
I30
sg65
g66
sg78
g79
sg84
Nsba(isquare
Square
p306
(dp307
S'y'
I1
sS'x'
I31
sg65
g66
sg78
g79
sg84
Nsba(isquare
Square
p308
(dp309
S'y'
I1
sS'x'
I32
sg65
g66
sg78
g79
sg84
Nsba(isquare
Square
p310
(dp311
S'y'
I1
sS'x'
I33
sg65
g66
sg78
g79
sg84
Nsba(isquare
Square
p312
(dp313
S'y'
I1
sS'x'
I34
sg65
g66
sg78
g79
sg84
Nsba(isquare
Square
p314
(dp315
S'y'
I1
sS'x'
I35
sg65
g66
sg78
g79
sg84
Nsba(isquare
Square
p316
(dp317
S'y'
I1
sS'x'
I36
sg65
g66
sg78
g79
sg84
Nsba(isquare
Square
p318
(dp319
S'y'
I1
sS'x'
I37
sg65
g66
sg78
g79
sg84
Nsba(isquare
Square
p320
(dp321
S'y'
I1
sS'x'
I38
sg65
g66
sg78
g79
sg84
Nsba(isquare
Square
p322
(dp323
S'y'
I1
sS'x'
I39
sg65
g66
sg78
g79
sg84
Nsba(isquare
Square
p324
(dp325
S'y'
I1
sS'x'
I40
sg65
g66
sg78
g79
sg84
Nsba(isquare
Square
p326
(dp327
S'y'
I1
sS'x'
I41
sg65
g66
sg78
g79
sg84
Nsba(isquare
Square
p328
(dp329
S'y'
I1
sS'x'
I42
sg65
g66
sg78
g79
sg84
Nsba(isquare
Square
p330
(dp331
S'y'
I1
sS'x'
I43
sg65
g66
sg78
g79
sg84
Nsba(isquare
Square
p332
(dp333
S'y'
I1
sS'x'
I44
sg65
g66
sg78
g79
sg84
Nsba(isquare
Square
p334
(dp335
S'y'
I1
sS'x'
I45
sg65
g66
sg78
g79
sg84
Nsba(isquare
Square
p336
(dp337
S'y'
I1
sS'x'
I46
sg65
g66
sg78
g79
sg84
Nsba(isquare
Square
p338
(dp339
S'y'
I1
sS'x'
I47
sg65
g66
sg78
g79
sg84
Nsba(isquare
Square
p340
(dp341
S'y'
I1
sS'x'
I48
sg65
g66
sg78
g79
sg84
Nsba(isquare
Square
p342
(dp343
S'y'
I1
sS'x'
I49
sg65
g66
sg78
g79
sg84
Nsba(isquare
Square
p344
(dp345
S'y'
I1
sS'x'
I50
sg65
g66
sg78
g79
sg84
Nsba(isquare
Square
p346
(dp347
S'y'
I1
sS'x'
I51
sg65
g66
sg78
g79
sg84
Nsba(isquare
Square
p348
(dp349
S'y'
I1
sS'x'
I52
sg65
g66
sg78
g79
sg84
Nsba(isquare
Square
p350
(dp351
S'y'
I1
sS'x'
I53
sg65
g66
sg78
g79
sg84
Nsba(isquare
Square
p352
(dp353
S'y'
I1
sS'x'
I54
sg65
g66
sg78
g79
sg84
Nsba(isquare
Square
p354
(dp355
S'y'
I1
sS'x'
I55
sg65
g66
sg78
g79
sg84
Nsba(isquare
Square
p356
(dp357
S'y'
I1
sS'x'
I56
sg65
g66
sg78
g79
sg84
Nsba(isquare
Square
p358
(dp359
S'y'
I1
sS'x'
I57
sg65
g66
sg78
g79
sg84
Nsba(isquare
Square
p360
(dp361
S'y'
I1
sS'x'
I58
sg65
g66
sg78
g79
sg84
Nsba(isquare
Square
p362
(dp363
S'y'
I1
sS'x'
I59
sg65
g66
sg78
g79
sg84
Nsba(isquare
Square
p364
(dp365
S'y'
I1
sS'x'
I60
sg65
g66
sg78
g79
sg84
Nsba(isquare
Square
p366
(dp367
S'y'
I1
sS'x'
I61
sg65
g66
sg78
g79
sg84
Nsba(isquare
Square
p368
(dp369
S'y'
I1
sS'x'
I62
sg65
g66
sg78
g79
sg84
Nsba(isquare
Square
p370
(dp371
S'y'
I1
sS'x'
I63
sg65
g66
sg78
g79
sg84
Nsba(isquare
Square
p372
(dp373
S'y'
I1
sS'x'
I64
sg65
g66
sg78
g79
sg84
Nsba(isquare
Square
p374
(dp375
S'y'
I1
sS'x'
I65
sg65
g66
sg78
g79
sg84
Nsba(isquare
Square
p376
(dp377
S'y'
I1
sS'x'
I66
sg65
g66
sg78
g79
sg84
Nsba(isquare
Square
p378
(dp379
S'y'
I1
sS'x'
I67
sg65
g66
sg78
g79
sg84
Nsba(isquare
Square
p380
(dp381
S'y'
I1
sS'x'
I68
sg65
g66
sg78
g79
sg84
Nsba(isquare
Square
p382
(dp383
S'y'
I1
sS'x'
I69
sg65
g66
sg78
g79
sg84
Nsba(isquare
Square
p384
(dp385
S'y'
I1
sS'x'
I70
sg65
g66
sg78
g79
sg84
Nsba(isquare
Square
p386
(dp387
S'y'
I1
sS'x'
I71
sg65
g66
sg78
g79
sg84
Nsba(isquare
Square
p388
(dp389
S'y'
I1
sS'x'
I72
sg65
g66
sg78
g79
sg84
Nsba(isquare
Square
p390
(dp391
S'y'
I1
sS'x'
I73
sg65
g66
sg78
g79
sg84
Nsba(isquare
Square
p392
(dp393
S'y'
I1
sS'x'
I74
sg65
g66
sg78
g79
sg84
Nsba(isquare
Square
p394
(dp395
S'y'
I1
sS'x'
I75
sg65
g66
sg78
g79
sg84
Nsba(isquare
Square
p396
(dp397
S'y'
I1
sS'x'
I76
sg65
g66
sg78
g79
sg84
Nsba(isquare
Square
p398
(dp399
S'y'
I1
sS'x'
I77
sg65
g66
sg78
g79
sg84
Nsba(isquare
Square
p400
(dp401
S'y'
I1
sS'x'
I78
sg65
g66
sg78
g79
sg84
Nsba(isquare
Square
p402
(dp403
S'y'
I1
sS'x'
I79
sg65
g66
sg78
g79
sg84
Nsbaa(lp404
(isquare
Square
p405
(dp406
S'y'
I2
sS'x'
I0
sg65
g66
sg78
g79
sg84
Nsba(isquare
Square
p407
(dp408
S'y'
I2
sS'x'
I1
sg65
g66
sg78
g79
sg84
Nsba(isquare
Square
p409
(dp410
S'y'
I2
sS'x'
I2
sg65
g66
sg78
g79
sg84
Nsba(isquare
Square
p411
(dp412
S'y'
I2
sS'x'
I3
sg65
g66
sg78
g79
sg84
Nsba(isquare
Square
p413
(dp414
S'y'
I2
sS'x'
I4
sg65
g66
sg78
g79
sg84
Nsba(isquare
Square
p415
(dp416
S'y'
I2
sS'x'
I5
sg65
g66
sg78
g79
sg84
Nsba(isquare
Square
p417
(dp418
S'y'
I2
sS'x'
I6
sg65
g66
sg78
g79
sg84
Nsba(isquare
Square
p419
(dp420
S'y'
I2
sS'x'
I7
sg65
g66
sg78
g79
sg84
Nsba(isquare
Square
p421
(dp422
S'y'
I2
sS'x'
I8
sg65
g66
sg78
g79
sg84
Nsba(isquare
Square
p423
(dp424
S'y'
I2
sS'x'
I9
sg65
g66
sg78
g79
sg84
Nsba(isquare
Square
p425
(dp426
S'y'
I2
sS'x'
I10
sg65
g66
sg78
g79
sg84
Nsba(isquare
Square
p427
(dp428
S'y'
I2
sS'x'
I11
sg65
g66
sg78
g79
sg84
Nsba(isquare
Square
p429
(dp430
S'y'
I2
sS'x'
I12
sg65
g66
sg78
g79
sg84
Nsba(isquare
Square
p431
(dp432
S'y'
I2
sS'x'
I13
sg65
g66
sg78
g79
sg84
Nsba(isquare
Square
p433
(dp434
S'y'
I2
sS'x'
I14
sg65
g66
sg78
g79
sg84
Nsba(isquare
Square
p435
(dp436
S'y'
I2
sS'x'
I15
sg65
g66
sg78
g79
sg84
Nsba(isquare
Square
p437
(dp438
S'y'
I2
sS'x'
I16
sg65
g66
sg78
g79
sg84
Nsba(isquare
Square
p439
(dp440
S'y'
I2
sS'x'
I17
sg65
g66
sg78
g79
sg84
Nsba(isquare
Square
p441
(dp442
S'y'
I2
sS'x'
I18
sg65
g66
sg78
g79
sg84
Nsba(isquare
Square
p443
(dp444
S'y'
I2
sS'x'
I19
sg65
g66
sg78
g79
sg84
Nsba(isquare
Square
p445
(dp446
S'y'
I2
sS'x'
I20
sg65
g66
sg78
g79
sg84
Nsba(isquare
Square
p447
(dp448
S'y'
I2
sS'x'
I21
sg65
g66
sg78
g79
sg84
Nsba(isquare
Square
p449
(dp450
S'y'
I2
sS'x'
I22
sg65
g66
sg78
g79
sg84
Nsba(isquare
Square
p451
(dp452
S'y'
I2
sS'x'
I23
sg65
g66
sg78
g79
sg84
Nsba(isquare
Square
p453
(dp454
S'y'
I2
sS'x'
I24
sg65
g66
sg78
g79
sg84
Nsba(isquare
Square
p455
(dp456
S'y'
I2
sS'x'
I25
sg65
g66
sg78
g79
sg84
Nsba(isquare
Square
p457
(dp458
S'y'
I2
sS'x'
I26
sg65
g66
sg78
g79
sg84
Nsba(isquare
Square
p459
(dp460
S'y'
I2
sS'x'
I27
sg65
g66
sg78
g79
sg84
Nsba(isquare
Square
p461
(dp462
S'y'
I2
sS'x'
I28
sg65
g66
sg78
g79
sg84
Nsba(isquare
Square
p463
(dp464
S'y'
I2
sS'x'
I29
sg65
g66
sg78
g79
sg84
Nsba(isquare
Square
p465
(dp466
S'y'
I2
sS'x'
I30
sg65
g66
sg78
g79
sg84
Nsba(isquare
Square
p467
(dp468
S'y'
I2
sS'x'
I31
sg65
g66
sg78
g79
sg84
Nsba(isquare
Square
p469
(dp470
S'y'
I2
sS'x'
I32
sg65
g66
sg78
g79
sg84
Nsba(isquare
Square
p471
(dp472
S'y'
I2
sS'x'
I33
sg65
g66
sg78
g79
sg84
Nsba(isquare
Square
p473
(dp474
S'y'
I2
sS'x'
I34
sg65
g66
sg78
g79
sg84
Nsba(isquare
Square
p475
(dp476
S'y'
I2
sS'x'
I35
sg65
g66
sg78
g79
sg84
Nsba(isquare
Square
p477
(dp478
S'y'
I2
sS'x'
I36
sg65
g66
sg78
g79
sg84
Nsba(isquare
Square
p479
(dp480
S'y'
I2
sS'x'
I37
sg65
g66
sg78
g79
sg84
Nsba(isquare
Square
p481
(dp482
S'y'
I2
sS'x'
I38
sg65
g66
sg78
g79
sg84
Nsba(isquare
Square
p483
(dp484
S'y'
I2
sS'x'
I39
sg65
g66
sg78
g79
sg84
Nsba(isquare
Square
p485
(dp486
S'y'
I2
sS'x'
I40
sg65
g66
sg78
g79
sg84
Nsba(isquare
Square
p487
(dp488
S'y'
I2
sS'x'
I41
sg65
g66
sg78
g79
sg84
Nsba(isquare
Square
p489
(dp490
S'y'
I2
sS'x'
I42
sg65
g66
sg78
g79
sg84
Nsba(isquare
Square
p491
(dp492
S'y'
I2
sS'x'
I43
sg65
g66
sg78
g79
sg84
Nsba(isquare
Square
p493
(dp494
S'y'
I2
sS'x'
I44
sg65
g66
sg78
g79
sg84
Nsba(isquare
Square
p495
(dp496
S'y'
I2
sS'x'
I45
sg65
g66
sg78
g79
sg84
Nsba(isquare
Square
p497
(dp498
S'y'
I2
sS'x'
I46
sg65
g66
sg78
g79
sg84
Nsba(isquare
Square
p499
(dp500
S'y'
I2
sS'x'
I47
sg65
g66
sg78
g79
sg84
Nsba(isquare
Square
p501
(dp502
S'y'
I2
sS'x'
I48
sg65
g66
sg78
g79
sg84
Nsba(isquare
Square
p503
(dp504
S'y'
I2
sS'x'
I49
sg65
g66
sg78
g79
sg84
Nsba(isquare
Square
p505
(dp506
S'y'
I2
sS'x'
I50
sg65
g66
sg78
g79
sg84
Nsba(isquare
Square
p507
(dp508
S'y'
I2
sS'x'
I51
sg65
g66
sg78
g79
sg84
Nsba(isquare
Square
p509
(dp510
S'y'
I2
sS'x'
I52
sg65
g66
sg78
g79
sg84
Nsba(isquare
Square
p511
(dp512
S'y'
I2
sS'x'
I53
sg65
g66
sg78
g79
sg84
Nsba(isquare
Square
p513
(dp514
S'y'
I2
sS'x'
I54
sg65
g66
sg78
g79
sg84
Nsba(isquare
Square
p515
(dp516
S'y'
I2
sS'x'
I55
sg65
g66
sg78
g79
sg84
Nsba(isquare
Square
p517
(dp518
S'y'
I2
sS'x'
I56
sg65
g66
sg78
g79
sg84
Nsba(isquare
Square
p519
(dp520
S'y'
I2
sS'x'
I57
sg65
g66
sg78
g79
sg84
Nsba(isquare
Square
p521
(dp522
S'y'
I2
sS'x'
I58
sg65
g66
sg78
g79
sg84
Nsba(isquare
Square
p523
(dp524
S'y'
I2
sS'x'
I59
sg65
g66
sg78
g79
sg84
Nsba(isquare
Square
p525
(dp526
S'y'
I2
sS'x'
I60
sg65
g66
sg78
g79
sg84
Nsba(isquare
Square
p527
(dp528
S'y'
I2
sS'x'
I61
sg65
g66
sg78
g79
sg84
Nsba(isquare
Square
p529
(dp530
S'y'
I2
sS'x'
I62
sg65
g66
sg78
g79
sg84
Nsba(isquare
Square
p531
(dp532
S'y'
I2
sS'x'
I63
sg65
g66
sg78
g79
sg84
Nsba(isquare
Square
p533
(dp534
S'y'
I2
sS'x'
I64
sg65
g66
sg78
g79
sg84
Nsba(isquare
Square
p535
(dp536
S'y'
I2
sS'x'
I65
sg65
g66
sg78
g79
sg84
Nsba(isquare
Square
p537
(dp538
S'y'
I2
sS'x'
I66
sg65
g66
sg78
g79
sg84
Nsba(isquare
Square
p539
(dp540
S'y'
I2
sS'x'
I67
sg65
g66
sg78
g79
sg84
Nsba(isquare
Square
p541
(dp542
S'y'
I2
sS'x'
I68
sg65
g66
sg78
g79
sg84
Nsba(isquare
Square
p543
(dp544
S'y'
I2
sS'x'
I69
sg65
g66
sg78
g79
sg84
Nsba(isquare
Square
p545
(dp546
S'y'
I2
sS'x'
I70
sg65
g66
sg78
g79
sg84
Nsba(isquare
Square
p547
(dp548
S'y'
I2
sS'x'
I71
sg65
g66
sg78
g79
sg84
Nsba(isquare
Square
p549
(dp550
S'y'
I2
sS'x'
I72
sg65
g66
sg78
g79
sg84
Nsba(isquare
Square
p551
(dp552
S'y'
I2
sS'x'
I73
sg65
g66
sg78
g79
sg84
Nsba(isquare
Square
p553
(dp554
S'y'
I2
sS'x'
I74
sg65
g66
sg78
g79
sg84
Nsba(isquare
Square
p555
(dp556
S'y'
I2
sS'x'
I75
sg65
g66
sg78
g79
sg84
Nsba(isquare
Square
p557
(dp558
S'y'
I2
sS'x'
I76
sg65
g66
sg78
g79
sg84
Nsba(isquare
Square
p559
(dp560
S'y'
I2
sS'x'
I77
sg65
g66
sg78
g79
sg84
Nsba(isquare
Square
p561
(dp562
S'y'
I2
sS'x'
I78
sg65
g66
sg78
g79
sg84
Nsba(isquare
Square
p563
(dp564
S'y'
I2
sS'x'
I79
sg65
g66
sg78
g79
sg84
Nsbaa(lp565
(isquare
Square
p566
(dp567
S'y'
I3
sS'x'
I0
sg65
g66
sg78
g79
sg84
Nsba(isquare
Square
p568
(dp569
S'y'
I3
sS'x'
I1
sg65
g66
sg78
g79
sg84
Nsba(isquare
Square
p570
(dp571
S'y'
I3
sS'x'
I2
sg65
g66
sg78
g79
sg84
Nsba(isquare
Square
p572
(dp573
S'y'
I3
sS'x'
I3
sg65
g66
sg78
g79
sg84
Nsba(isquare
Square
p574
(dp575
S'y'
I3
sS'x'
I4
sg65
g66
sg78
g79
sg84
Nsba(isquare
Square
p576
(dp577
S'y'
I3
sS'x'
I5
sg65
g66
sg78
g79
sg84
Nsba(isquare
Square
p578
(dp579
S'y'
I3
sS'x'
I6
sg65
g66
sg78
g79
sg84
Nsba(isquare
Square
p580
(dp581
S'y'
I3
sS'x'
I7
sg65
g66
sg78
g79
sg84
Nsba(isquare
Square
p582
(dp583
S'y'
I3
sS'x'
I8
sg65
g66
sg78
g79
sg84
Nsba(isquare
Square
p584
(dp585
S'y'
I3
sS'x'
I9
sg65
g66
sg78
g79
sg84
Nsba(isquare
Square
p586
(dp587
S'y'
I3
sS'x'
I10
sg65
g66
sg78
g79
sg84
Nsba(isquare
Square
p588
(dp589
S'y'
I3
sS'x'
I11
sg65
g66
sg78
g79
sg84
Nsba(isquare
Square
p590
(dp591
S'y'
I3
sS'x'
I12
sg65
g66
sg78
g79
sg84
Nsba(isquare
Square
p592
(dp593
S'y'
I3
sS'x'
I13
sg65
g66
sg78
g79
sg84
Nsba(isquare
Square
p594
(dp595
S'y'
I3
sS'x'
I14
sg65
g66
sg78
g79
sg84
Nsba(isquare
Square
p596
(dp597
S'y'
I3
sS'x'
I15
sg65
g66
sg78
g79
sg84
Nsba(isquare
Square
p598
(dp599
S'y'
I3
sS'x'
I16
sg65
g66
sg78
g79
sg84
Nsba(isquare
Square
p600
(dp601
S'y'
I3
sS'x'
I17
sg65
g66
sg78
g79
sg84
Nsba(isquare
Square
p602
(dp603
S'y'
I3
sS'x'
I18
sg65
g66
sg78
g79
sg84
Nsba(isquare
Square
p604
(dp605
S'y'
I3
sS'x'
I19
sg65
g66
sg78
g79
sg84
Nsba(isquare
Square
p606
(dp607
S'y'
I3
sS'x'
I20
sg65
g66
sg78
g79
sg84
Nsba(isquare
Square
p608
(dp609
S'y'
I3
sS'x'
I21
sg65
g66
sg78
g79
sg84
Nsba(isquare
Square
p610
(dp611
S'y'
I3
sS'x'
I22
sg65
g66
sg78
g79
sg84
Nsba(isquare
Square
p612
(dp613
S'y'
I3
sS'x'
I23
sg65
g66
sg78
g79
sg84
Nsba(isquare
Square
p614
(dp615
S'y'
I3
sS'x'
I24
sg65
g66
sg78
g79
sg84
Nsba(isquare
Square
p616
(dp617
S'y'
I3
sS'x'
I25
sg65
g66
sg78
g79
sg84
Nsba(isquare
Square
p618
(dp619
S'y'
I3
sS'x'
I26
sg65
g66
sg78
g79
sg84
Nsba(isquare
Square
p620
(dp621
S'y'
I3
sS'x'
I27
sg65
g66
sg78
g79
sg84
Nsba(isquare
Square
p622
(dp623
S'y'
I3
sS'x'
I28
sg65
g66
sg78
g79
sg84
Nsba(isquare
Square
p624
(dp625
S'y'
I3
sS'x'
I29
sg65
g66
sg78
g79
sg84
Nsba(isquare
Square
p626
(dp627
S'y'
I3
sS'x'
I30
sg65
g66
sg78
g79
sg84
Nsba(isquare
Square
p628
(dp629
S'y'
I3
sS'x'
I31
sg65
g66
sg78
g79
sg84
Nsba(isquare
Square
p630
(dp631
S'y'
I3
sS'x'
I32
sg65
g66
sg78
g79
sg84
Nsba(isquare
Square
p632
(dp633
S'y'
I3
sS'x'
I33
sg65
g66
sg78
g79
sg84
Nsba(isquare
Square
p634
(dp635
S'y'
I3
sS'x'
I34
sg65
g66
sg78
g79
sg84
Nsba(isquare
Square
p636
(dp637
S'y'
I3
sS'x'
I35
sg65
g66
sg78
g79
sg84
Nsba(isquare
Square
p638
(dp639
S'y'
I3
sS'x'
I36
sg65
g66
sg78
g79
sg84
Nsba(isquare
Square
p640
(dp641
S'y'
I3
sS'x'
I37
sg65
g66
sg78
g79
sg84
Nsba(isquare
Square
p642
(dp643
S'y'
I3
sS'x'
I38
sg65
g66
sg78
g79
sg84
Nsba(isquare
Square
p644
(dp645
S'y'
I3
sS'x'
I39
sg65
g66
sg78
g79
sg84
Nsba(isquare
Square
p646
(dp647
S'y'
I3
sS'x'
I40
sg65
g66
sg78
g79
sg84
Nsba(isquare
Square
p648
(dp649
S'y'
I3
sS'x'
I41
sg65
g66
sg78
g79
sg84
Nsba(isquare
Square
p650
(dp651
S'y'
I3
sS'x'
I42
sg65
g66
sg78
g79
sg84
Nsba(isquare
Square
p652
(dp653
S'y'
I3
sS'x'
I43
sg65
g66
sg78
g79
sg84
Nsba(isquare
Square
p654
(dp655
S'y'
I3
sS'x'
I44
sg65
g66
sg78
g79
sg84
Nsba(isquare
Square
p656
(dp657
S'y'
I3
sS'x'
I45
sg65
g66
sg78
g79
sg84
Nsba(isquare
Square
p658
(dp659
S'y'
I3
sS'x'
I46
sg65
g66
sg78
g79
sg84
Nsba(isquare
Square
p660
(dp661
S'y'
I3
sS'x'
I47
sg65
g66
sg78
g79
sg84
Nsba(isquare
Square
p662
(dp663
S'y'
I3
sS'x'
I48
sg65
g66
sg78
g79
sg84
Nsba(isquare
Square
p664
(dp665
S'y'
I3
sS'x'
I49
sg65
g66
sg78
g79
sg84
Nsba(isquare
Square
p666
(dp667
S'y'
I3
sS'x'
I50
sg65
g66
sg78
g79
sg84
Nsba(isquare
Square
p668
(dp669
S'y'
I3
sS'x'
I51
sg65
g66
sg78
g79
sg84
Nsba(isquare
Square
p670
(dp671
S'y'
I3
sS'x'
I52
sg65
g66
sg78
g79
sg84
Nsba(isquare
Square
p672
(dp673
S'y'
I3
sS'x'
I53
sg65
g66
sg78
g79
sg84
Nsba(isquare
Square
p674
(dp675
S'y'
I3
sS'x'
I54
sg65
g66
sg78
g79
sg84
Nsba(isquare
Square
p676
(dp677
S'y'
I3
sS'x'
I55
sg65
g66
sg78
g79
sg84
Nsba(isquare
Square
p678
(dp679
S'y'
I3
sS'x'
I56
sg65
g66
sg78
g79
sg84
Nsba(isquare
Square
p680
(dp681
S'y'
I3
sS'x'
I57
sg65
g66
sg78
g79
sg84
Nsba(isquare
Square
p682
(dp683
S'y'
I3
sS'x'
I58
sg65
g66
sg78
g79
sg84
Nsba(isquare
Square
p684
(dp685
S'y'
I3
sS'x'
I59
sg65
g66
sg78
g79
sg84
Nsba(isquare
Square
p686
(dp687
S'y'
I3
sS'x'
I60
sg65
g66
sg78
g79
sg84
Nsba(isquare
Square
p688
(dp689
S'y'
I3
sS'x'
I61
sg65
g66
sg78
g79
sg84
Nsba(isquare
Square
p690
(dp691
S'y'
I3
sS'x'
I62
sg65
g66
sg78
g79
sg84
Nsba(isquare
Square
p692
(dp693
S'y'
I3
sS'x'
I63
sg65
g66
sg78
g79
sg84
Nsba(isquare
Square
p694
(dp695
S'y'
I3
sS'x'
I64
sg65
g66
sg78
g79
sg84
Nsba(isquare
Square
p696
(dp697
S'y'
I3
sS'x'
I65
sg65
g66
sg78
g79
sg84
Nsba(isquare
Square
p698
(dp699
S'y'
I3
sS'x'
I66
sg65
g66
sg78
g79
sg84
Nsba(isquare
Square
p700
(dp701
S'y'
I3
sS'x'
I67
sg65
g66
sg78
g79
sg84
Nsba(isquare
Square
p702
(dp703
S'y'
I3
sS'x'
I68
sg65
g66
sg78
g79
sg84
Nsba(isquare
Square
p704
(dp705
S'y'
I3
sS'x'
I69
sg65
g66
sg78
g79
sg84
Nsba(isquare
Square
p706
(dp707
S'y'
I3
sS'x'
I70
sg65
g66
sg78
g79
sg84
Nsba(isquare
Square
p708
(dp709
S'y'
I3
sS'x'
I71
sg65
g66
sg78
g79
sg84
Nsba(isquare
Square
p710
(dp711
S'y'
I3
sS'x'
I72
sg65
g66
sg78
g79
sg84
Nsba(isquare
Square
p712
(dp713
S'y'
I3
sS'x'
I73
sg65
g66
sg78
g79
sg84
Nsba(isquare
Square
p714
(dp715
S'y'
I3
sS'x'
I74
sg65
g66
sg78
g79
sg84
Nsba(isquare
Square
p716
(dp717
S'y'
I3
sS'x'
I75
sg65
g66
sg78
g79
sg84
Nsba(isquare
Square
p718
(dp719
S'y'
I3
sS'x'
I76
sg65
g66
sg78
g79
sg84
Nsba(isquare
Square
p720
(dp721
S'y'
I3
sS'x'
I77
sg65
g66
sg78
g79
sg84
Nsba(isquare
Square
p722
(dp723
S'y'
I3
sS'x'
I78
sg65
g66
sg78
g79
sg84
Nsba(isquare
Square
p724
(dp725
S'y'
I3
sS'x'
I79
sg65
g66
sg78
g79
sg84
Nsbaa(lp726
(isquare
Square
p727
(dp728
S'y'
I4
sS'x'
I0
sg65
g66
sg78
g79
sg84
Nsba(isquare
Square
p729
(dp730
S'y'
I4
sS'x'
I1
sg65
g66
sg78
g79
sg84
Nsba(isquare
Square
p731
(dp732
S'y'
I4
sS'x'
I2
sg65
g66
sg78
g79
sg84
Nsba(isquare
Square
p733
(dp734
S'y'
I4
sS'x'
I3
sg65
g66
sg78
g79
sg84
Nsba(isquare
Square
p735
(dp736
S'y'
I4
sS'x'
I4
sg65
g66
sg78
g79
sg84
Nsba(isquare
Square
p737
(dp738
S'y'
I4
sS'x'
I5
sg65
g66
sg78
g79
sg84
Nsba(isquare
Square
p739
(dp740
S'y'
I4
sS'x'
I6
sg65
g66
sg78
g79
sg84
Nsba(isquare
Square
p741
(dp742
S'y'
I4
sS'x'
I7
sg65
g66
sg78
g79
sg84
Nsba(isquare
Square
p743
(dp744
S'y'
I4
sS'x'
I8
sg65
g66
sg78
g79
sg84
Nsba(isquare
Square
p745
(dp746
S'y'
I4
sS'x'
I9
sg65
g66
sg78
g79
sg84
Nsba(isquare
Square
p747
(dp748
S'y'
I4
sS'x'
I10
sg65
g66
sg78
g79
sg84
Nsba(isquare
Square
p749
(dp750
S'y'
I4
sS'x'
I11
sg65
g66
sg78
g79
sg84
Nsba(isquare
Square
p751
(dp752
S'y'
I4
sS'x'
I12
sg65
g66
sg78
g79
sg84
Nsba(isquare
Square
p753
(dp754
S'y'
I4
sS'x'
I13
sg65
g66
sg78
g79
sg84
Nsba(isquare
Square
p755
(dp756
S'y'
I4
sS'x'
I14
sg65
g66
sg78
g79
sg84
Nsba(isquare
Square
p757
(dp758
S'y'
I4
sS'x'
I15
sg65
g66
sg78
g79
sg84
Nsba(isquare
Square
p759
(dp760
S'y'
I4
sS'x'
I16
sg65
g66
sg78
g79
sg84
Nsba(isquare
Square
p761
(dp762
S'y'
I4
sS'x'
I17
sg65
g66
sg78
g79
sg84
Nsba(isquare
Square
p763
(dp764
S'y'
I4
sS'x'
I18
sg65
g66
sg78
g79
sg84
Nsba(isquare
Square
p765
(dp766
S'y'
I4
sS'x'
I19
sg65
g66
sg78
g79
sg84
Nsba(isquare
Square
p767
(dp768
S'y'
I4
sS'x'
I20
sg65
g66
sg78
g79
sg84
Nsba(isquare
Square
p769
(dp770
S'y'
I4
sS'x'
I21
sg65
g66
sg78
g79
sg84
Nsba(isquare
Square
p771
(dp772
S'y'
I4
sS'x'
I22
sg65
g66
sg78
g79
sg84
Nsba(isquare
Square
p773
(dp774
S'y'
I4
sS'x'
I23
sg65
g66
sg78
g79
sg84
Nsba(isquare
Square
p775
(dp776
S'y'
I4
sS'x'
I24
sg65
g66
sg78
g79
sg84
Nsba(isquare
Square
p777
(dp778
S'y'
I4
sS'x'
I25
sg65
g66
sg78
g79
sg84
Nsba(isquare
Square
p779
(dp780
S'y'
I4
sS'x'
I26
sg65
g66
sg78
g79
sg84
Nsba(isquare
Square
p781
(dp782
S'y'
I4
sS'x'
I27
sg65
g66
sg78
g79
sg84
Nsba(isquare
Square
p783
(dp784
S'y'
I4
sS'x'
I28
sg65
g66
sg78
g79
sg84
Nsba(isquare
Square
p785
(dp786
S'y'
I4
sS'x'
I29
sg65
g66
sg78
g79
sg84
Nsba(isquare
Square
p787
(dp788
S'y'
I4
sS'x'
I30
sg65
g66
sg78
g79
sg84
Nsba(isquare
Square
p789
(dp790
S'y'
I4
sS'x'
I31
sg65
g66
sg78
g79
sg84
Nsba(isquare
Square
p791
(dp792
S'y'
I4
sS'x'
I32
sg65
g66
sg78
g79
sg84
Nsba(isquare
Square
p793
(dp794
S'y'
I4
sS'x'
I33
sg65
g66
sg78
g79
sg84
Nsba(isquare
Square
p795
(dp796
S'y'
I4
sS'x'
I34
sg65
g66
sg78
g79
sg84
Nsba(isquare
Square
p797
(dp798
S'y'
I4
sS'x'
I35
sg65
g66
sg78
g79
sg84
Nsba(isquare
Square
p799
(dp800
S'y'
I4
sS'x'
I36
sg65
g66
sg78
g79
sg84
Nsba(isquare
Square
p801
(dp802
S'y'
I4
sS'x'
I37
sg65
g66
sg78
g79
sg84
Nsba(isquare
Square
p803
(dp804
S'y'
I4
sS'x'
I38
sg65
g66
sg78
g79
sg84
Nsba(isquare
Square
p805
(dp806
S'y'
I4
sS'x'
I39
sg65
g66
sg78
g79
sg84
Nsba(isquare
Square
p807
(dp808
S'y'
I4
sS'x'
I40
sg65
g66
sg78
g79
sg84
Nsba(isquare
Square
p809
(dp810
S'y'
I4
sS'x'
I41
sg65
g66
sg78
g79
sg84
Nsba(isquare
Square
p811
(dp812
S'y'
I4
sS'x'
I42
sg65
g66
sg78
g79
sg84
Nsba(isquare
Square
p813
(dp814
S'y'
I4
sS'x'
I43
sg65
g66
sg78
g79
sg84
Nsba(isquare
Square
p815
(dp816
S'y'
I4
sS'x'
I44
sg65
g66
sg78
g79
sg84
Nsba(isquare
Square
p817
(dp818
S'y'
I4
sS'x'
I45
sg65
g66
sg78
g79
sg84
Nsba(isquare
Square
p819
(dp820
S'y'
I4
sS'x'
I46
sg65
g66
sg78
g79
sg84
Nsba(isquare
Square
p821
(dp822
S'y'
I4
sS'x'
I47
sg65
g66
sg78
g79
sg84
Nsba(isquare
Square
p823
(dp824
S'y'
I4
sS'x'
I48
sg65
g66
sg78
g79
sg84
Nsba(isquare
Square
p825
(dp826
S'y'
I4
sS'x'
I49
sg65
g66
sg78
g79
sg84
Nsba(isquare
Square
p827
(dp828
S'y'
I4
sS'x'
I50
sg65
g66
sg78
g79
sg84
Nsba(isquare
Square
p829
(dp830
S'y'
I4
sS'x'
I51
sg65
g66
sg78
g79
sg84
Nsba(isquare
Square
p831
(dp832
S'y'
I4
sS'x'
I52
sg65
g66
sg78
g79
sg84
Nsba(isquare
Square
p833
(dp834
S'y'
I4
sS'x'
I53
sg65
g66
sg78
g79
sg84
Nsba(isquare
Square
p835
(dp836
S'y'
I4
sS'x'
I54
sg65
g66
sg78
g79
sg84
Nsba(isquare
Square
p837
(dp838
S'y'
I4
sS'x'
I55
sg65
g66
sg78
g79
sg84
Nsba(isquare
Square
p839
(dp840
S'y'
I4
sS'x'
I56
sg65
g66
sg78
g79
sg84
Nsba(isquare
Square
p841
(dp842
S'y'
I4
sS'x'
I57
sg65
g66
sg78
g79
sg84
Nsba(isquare
Square
p843
(dp844
S'y'
I4
sS'x'
I58
sg65
g66
sg78
g79
sg84
Nsba(isquare
Square
p845
(dp846
S'y'
I4
sS'x'
I59
sg65
g66
sg78
g79
sg84
Nsba(isquare
Square
p847
(dp848
S'y'
I4
sS'x'
I60
sg65
g66
sg78
g79
sg84
Nsba(isquare
Square
p849
(dp850
S'y'
I4
sS'x'
I61
sg65
g66
sg78
g79
sg84
Nsba(isquare
Square
p851
(dp852
S'y'
I4
sS'x'
I62
sg65
g66
sg78
g79
sg84
Nsba(isquare
Square
p853
(dp854
S'y'
I4
sS'x'
I63
sg65
g66
sg78
g79
sg84
Nsba(isquare
Square
p855
(dp856
S'y'
I4
sS'x'
I64
sg65
g66
sg78
g79
sg84
Nsba(isquare
Square
p857
(dp858
S'y'
I4
sS'x'
I65
sg65
g66
sg78
g79
sg84
Nsba(isquare
Square
p859
(dp860
S'y'
I4
sS'x'
I66
sg65
g66
sg78
g79
sg84
Nsba(isquare
Square
p861
(dp862
S'y'
I4
sS'x'
I67
sg65
g66
sg78
g79
sg84
Nsba(isquare
Square
p863
(dp864
S'y'
I4
sS'x'
I68
sg65
g66
sg78
g79
sg84
Nsba(isquare
Square
p865
(dp866
S'y'
I4
sS'x'
I69
sg65
g66
sg78
g79
sg84
Nsba(isquare
Square
p867
(dp868
S'y'
I4
sS'x'
I70
sg65
g66
sg78
g79
sg84
Nsba(isquare
Square
p869
(dp870
S'y'
I4
sS'x'
I71
sg65
g66
sg78
g79
sg84
Nsba(isquare
Square
p871
(dp872
S'y'
I4
sS'x'
I72
sg65
g66
sg78
g79
sg84
Nsba(isquare
Square
p873
(dp874
S'y'
I4
sS'x'
I73
sg65
g66
sg78
g79
sg84
Nsba(isquare
Square
p875
(dp876
S'y'
I4
sS'x'
I74
sg65
g66
sg78
g79
sg84
Nsba(isquare
Square
p877
(dp878
S'y'
I4
sS'x'
I75
sg65
g66
sg78
g79
sg84
Nsba(isquare
Square
p879
(dp880
S'y'
I4
sS'x'
I76
sg65
g66
sg78
g79
sg84
Nsba(isquare
Square
p881
(dp882
S'y'
I4
sS'x'
I77
sg65
g66
sg78
g79
sg84
Nsba(isquare
Square
p883
(dp884
S'y'
I4
sS'x'
I78
sg65
g66
sg78
g79
sg84
Nsba(isquare
Square
p885
(dp886
S'y'
I4
sS'x'
I79
sg65
g66
sg78
g79
sg84
Nsbaa(lp887
(isquare
Square
p888
(dp889
S'y'
I5
sS'x'
I0
sg65
g66
sg78
g79
sg84
Nsba(isquare
Square
p890
(dp891
S'y'
I5
sS'x'
I1
sg65
g66
sg78
g79
sg84
Nsba(isquare
Square
p892
(dp893
S'y'
I5
sS'x'
I2
sg65
g66
sg78
g79
sg84
Nsba(isquare
Square
p894
(dp895
S'y'
I5
sS'x'
I3
sg65
g66
sg78
g79
sg84
Nsba(isquare
Square
p896
(dp897
S'y'
I5
sS'x'
I4
sg65
g66
sg78
g79
sg84
Nsba(isquare
Square
p898
(dp899
S'y'
I5
sS'x'
I5
sg65
g66
sg78
g79
sg84
Nsba(isquare
Square
p900
(dp901
S'y'
I5
sS'x'
I6
sg65
g66
sg78
g79
sg84
Nsba(isquare
Square
p902
(dp903
S'y'
I5
sS'x'
I7
sg65
g66
sg78
g79
sg84
Nsba(isquare
Square
p904
(dp905
S'y'
I5
sS'x'
I8
sg65
g66
sg78
g79
sg84
Nsba(isquare
Square
p906
(dp907
S'y'
I5
sS'x'
I9
sg65
g66
sg78
g79
sg84
Nsba(isquare
Square
p908
(dp909
S'y'
I5
sS'x'
I10
sg65
g66
sg78
g79
sg84
Nsba(isquare
Square
p910
(dp911
S'y'
I5
sS'x'
I11
sg65
g66
sg78
g79
sg84
Nsba(isquare
Square
p912
(dp913
S'y'
I5
sS'x'
I12
sg65
g66
sg78
g79
sg84
Nsba(isquare
Square
p914
(dp915
S'y'
I5
sS'x'
I13
sg65
g66
sg78
g79
sg84
Nsba(isquare
Square
p916
(dp917
S'y'
I5
sS'x'
I14
sg65
g66
sg78
g79
sg84
Nsba(isquare
Square
p918
(dp919
S'y'
I5
sS'x'
I15
sg65
g66
sg78
g79
sg84
Nsba(isquare
Square
p920
(dp921
S'y'
I5
sS'x'
I16
sg65
g66
sg78
g79
sg84
Nsba(isquare
Square
p922
(dp923
S'y'
I5
sS'x'
I17
sg65
g66
sg78
g79
sg84
Nsba(isquare
Square
p924
(dp925
S'y'
I5
sS'x'
I18
sg65
g66
sg78
g79
sg84
Nsba(isquare
Square
p926
(dp927
S'y'
I5
sS'x'
I19
sg65
g66
sg78
g79
sg84
Nsba(isquare
Square
p928
(dp929
S'y'
I5
sS'x'
I20
sg65
g66
sg78
g79
sg84
Nsba(isquare
Square
p930
(dp931
S'y'
I5
sS'x'
I21
sg65
g66
sg78
g79
sg84
Nsba(isquare
Square
p932
(dp933
S'y'
I5
sS'x'
I22
sg65
g66
sg78
g79
sg84
Nsba(isquare
Square
p934
(dp935
S'y'
I5
sS'x'
I23
sg65
g66
sg78
g79
sg84
Nsba(isquare
Square
p936
(dp937
S'y'
I5
sS'x'
I24
sg65
g66
sg78
g79
sg84
Nsba(isquare
Square
p938
(dp939
S'y'
I5
sS'x'
I25
sg65
g66
sg78
g79
sg84
Nsba(isquare
Square
p940
(dp941
S'y'
I5
sS'x'
I26
sg65
g66
sg78
g79
sg84
Nsba(isquare
Square
p942
(dp943
S'y'
I5
sS'x'
I27
sg65
g66
sg78
g79
sg84
Nsba(isquare
Square
p944
(dp945
S'y'
I5
sS'x'
I28
sg65
g66
sg78
g79
sg84
Nsba(isquare
Square
p946
(dp947
S'y'
I5
sS'x'
I29
sg65
g66
sg78
g79
sg84
Nsba(isquare
Square
p948
(dp949
S'y'
I5
sS'x'
I30
sg65
g66
sg78
g79
sg84
Nsba(isquare
Square
p950
(dp951
S'y'
I5
sS'x'
I31
sg65
g66
sg78
g79
sg84
Nsba(isquare
Square
p952
(dp953
S'y'
I5
sS'x'
I32
sg65
g66
sg78
g79
sg84
Nsba(isquare
Square
p954
(dp955
S'y'
I5
sS'x'
I33
sg65
g66
sg78
g79
sg84
Nsba(isquare
Square
p956
(dp957
S'y'
I5
sS'x'
I34
sg65
g66
sg78
g79
sg84
Nsba(isquare
Square
p958
(dp959
S'y'
I5
sS'x'
I35
sg65
g66
sg78
g79
sg84
Nsba(isquare
Square
p960
(dp961
S'y'
I5
sS'x'
I36
sg65
g66
sg78
g79
sg84
Nsba(isquare
Square
p962
(dp963
S'y'
I5
sS'x'
I37
sg65
g66
sg78
g79
sg84
Nsba(isquare
Square
p964
(dp965
S'y'
I5
sS'x'
I38
sg65
g66
sg78
g79
sg84
Nsba(isquare
Square
p966
(dp967
S'y'
I5
sS'x'
I39
sg65
g66
sg78
g79
sg84
Nsba(isquare
Square
p968
(dp969
S'y'
I5
sS'x'
I40
sg65
g66
sg78
g79
sg84
Nsba(isquare
Square
p970
(dp971
S'y'
I5
sS'x'
I41
sg65
g66
sg78
g79
sg84
Nsba(isquare
Square
p972
(dp973
S'y'
I5
sS'x'
I42
sg65
g66
sg78
g79
sg84
Nsba(isquare
Square
p974
(dp975
S'y'
I5
sS'x'
I43
sg65
g66
sg78
g79
sg84
Nsba(isquare
Square
p976
(dp977
S'y'
I5
sS'x'
I44
sg65
g66
sg78
g79
sg84
Nsba(isquare
Square
p978
(dp979
S'y'
I5
sS'x'
I45
sg65
g66
sg78
g79
sg84
Nsba(isquare
Square
p980
(dp981
S'y'
I5
sS'x'
I46
sg65
g66
sg78
g79
sg84
Nsba(isquare
Square
p982
(dp983
S'y'
I5
sS'x'
I47
sg65
g66
sg78
g79
sg84
Nsba(isquare
Square
p984
(dp985
S'y'
I5
sS'x'
I48
sg65
g66
sg78
g79
sg84
Nsba(isquare
Square
p986
(dp987
S'y'
I5
sS'x'
I49
sg65
g66
sg78
g79
sg84
Nsba(isquare
Square
p988
(dp989
S'y'
I5
sS'x'
I50
sg65
g66
sg78
g79
sg84
Nsba(isquare
Square
p990
(dp991
S'y'
I5
sS'x'
I51
sg65
g66
sg78
g79
sg84
Nsba(isquare
Square
p992
(dp993
S'y'
I5
sS'x'
I52
sg65
g66
sg78
g79
sg84
Nsba(isquare
Square
p994
(dp995
S'y'
I5
sS'x'
I53
sg65
g66
sg78
g79
sg84
Nsba(isquare
Square
p996
(dp997
S'y'
I5
sS'x'
I54
sg65
g66
sg78
g79
sg84
Nsba(isquare
Square
p998
(dp999
S'y'
I5
sS'x'
I55
sg65
g66
sg78
g79
sg84
Nsba(isquare
Square
p1000
(dp1001
S'y'
I5
sS'x'
I56
sg65
g66
sg78
g79
sg84
Nsba(isquare
Square
p1002
(dp1003
S'y'
I5
sS'x'
I57
sg65
g66
sg78
g79
sg84
Nsba(isquare
Square
p1004
(dp1005
S'y'
I5
sS'x'
I58
sg65
g66
sg78
g79
sg84
Nsba(isquare
Square
p1006
(dp1007
S'y'
I5
sS'x'
I59
sg65
g66
sg78
g79
sg84
Nsba(isquare
Square
p1008
(dp1009
S'y'
I5
sS'x'
I60
sg65
g66
sg78
g79
sg84
Nsba(isquare
Square
p1010
(dp1011
S'y'
I5
sS'x'
I61
sg65
g66
sg78
g79
sg84
Nsba(isquare
Square
p1012
(dp1013
S'y'
I5
sS'x'
I62
sg65
g66
sg78
g79
sg84
Nsba(isquare
Square
p1014
(dp1015
S'y'
I5
sS'x'
I63
sg65
g66
sg78
g79
sg84
Nsba(isquare
Square
p1016
(dp1017
S'y'
I5
sS'x'
I64
sg65
g66
sg78
g79
sg84
Nsba(isquare
Square
p1018
(dp1019
S'y'
I5
sS'x'
I65
sg65
g66
sg78
g79
sg84
Nsba(isquare
Square
p1020
(dp1021
S'y'
I5
sS'x'
I66
sg65
g66
sg78
g79
sg84
Nsba(isquare
Square
p1022
(dp1023
S'y'
I5
sS'x'
I67
sg65
g66
sg78
g79
sg84
Nsba(isquare
Square
p1024
(dp1025
S'y'
I5
sS'x'
I68
sg65
g66
sg78
g79
sg84
Nsba(isquare
Square
p1026
(dp1027
S'y'
I5
sS'x'
I69
sg65
g66
sg78
g79
sg84
Nsba(isquare
Square
p1028
(dp1029
S'y'
I5
sS'x'
I70
sg65
g66
sg78
g79
sg84
Nsba(isquare
Square
p1030
(dp1031
S'y'
I5
sS'x'
I71
sg65
g66
sg78
g79
sg84
Nsba(isquare
Square
p1032
(dp1033
S'y'
I5
sS'x'
I72
sg65
g66
sg78
g79
sg84
Nsba(isquare
Square
p1034
(dp1035
S'y'
I5
sS'x'
I73
sg65
g66
sg78
g79
sg84
Nsba(isquare
Square
p1036
(dp1037
S'y'
I5
sS'x'
I74
sg65
g66
sg78
g79
sg84
Nsba(isquare
Square
p1038
(dp1039
S'y'
I5
sS'x'
I75
sg65
g66
sg78
g79
sg84
Nsba(isquare
Square
p1040
(dp1041
S'y'
I5
sS'x'
I76
sg65
g66
sg78
g79
sg84
Nsba(isquare
Square
p1042
(dp1043
S'y'
I5
sS'x'
I77
sg65
g66
sg78
g79
sg84
Nsba(isquare
Square
p1044
(dp1045
S'y'
I5
sS'x'
I78
sg65
g66
sg78
g79
sg84
Nsba(isquare
Square
p1046
(dp1047
S'y'
I5
sS'x'
I79
sg65
g66
sg78
g79
sg84
Nsbaa(lp1048
(isquare
Square
p1049
(dp1050
S'y'
I6
sS'x'
I0
sg65
g66
sg78
g79
sg84
Nsba(isquare
Square
p1051
(dp1052
S'y'
I6
sS'x'
I1
sg65
g66
sg78
g79
sg84
Nsba(isquare
Square
p1053
(dp1054
S'y'
I6
sS'x'
I2
sg65
g66
sg78
g79
sg84
Nsba(isquare
Square
p1055
(dp1056
S'y'
I6
sS'x'
I3
sg65
g66
sg78
g79
sg84
Nsba(isquare
Square
p1057
(dp1058
S'y'
I6
sS'x'
I4
sg65
g66
sg78
g79
sg84
Nsba(isquare
Square
p1059
(dp1060
S'y'
I6
sS'x'
I5
sg65
g66
sg78
g79
sg84
Nsba(isquare
Square
p1061
(dp1062
S'y'
I6
sS'x'
I6
sg65
g66
sg78
g79
sg84
Nsba(isquare
Square
p1063
(dp1064
S'y'
I6
sS'x'
I7
sg65
g66
sg78
g79
sg84
Nsba(isquare
Square
p1065
(dp1066
S'y'
I6
sS'x'
I8
sg65
g66
sg78
g79
sg84
Nsba(isquare
Square
p1067
(dp1068
S'y'
I6
sS'x'
I9
sg65
g66
sg78
g79
sg84
Nsba(isquare
Square
p1069
(dp1070
S'y'
I6
sS'x'
I10
sg65
g66
sg78
g79
sg84
Nsba(isquare
Square
p1071
(dp1072
S'y'
I6
sS'x'
I11
sg65
g66
sg78
g79
sg84
Nsba(isquare
Square
p1073
(dp1074
S'y'
I6
sS'x'
I12
sg65
g66
sg78
g79
sg84
Nsba(isquare
Square
p1075
(dp1076
S'y'
I6
sS'x'
I13
sg65
g66
sg78
g79
sg84
Nsba(isquare
Square
p1077
(dp1078
S'y'
I6
sS'x'
I14
sg65
g66
sg78
g79
sg84
Nsba(isquare
Square
p1079
(dp1080
S'y'
I6
sS'x'
I15
sg65
g66
sg78
g79
sg84
Nsba(isquare
Square
p1081
(dp1082
S'y'
I6
sS'x'
I16
sg65
g66
sg78
g79
sg84
Nsba(isquare
Square
p1083
(dp1084
S'y'
I6
sS'x'
I17
sg65
g66
sg78
g79
sg84
Nsba(isquare
Square
p1085
(dp1086
S'y'
I6
sS'x'
I18
sg65
g66
sg78
g79
sg84
Nsba(isquare
Square
p1087
(dp1088
S'y'
I6
sS'x'
I19
sg65
g66
sg78
g79
sg84
Nsba(isquare
Square
p1089
(dp1090
S'y'
I6
sS'x'
I20
sg65
g66
sg78
g79
sg84
Nsba(isquare
Square
p1091
(dp1092
S'y'
I6
sS'x'
I21
sg65
g66
sg78
g79
sg84
Nsba(isquare
Square
p1093
(dp1094
S'y'
I6
sS'x'
I22
sg65
g66
sg78
g79
sg84
Nsba(isquare
Square
p1095
(dp1096
S'y'
I6
sS'x'
I23
sg65
g66
sg78
g79
sg84
Nsba(isquare
Square
p1097
(dp1098
S'y'
I6
sS'x'
I24
sg65
g66
sg78
g79
sg84
Nsba(isquare
Square
p1099
(dp1100
S'y'
I6
sS'x'
I25
sg65
g66
sg78
g79
sg84
Nsba(isquare
Square
p1101
(dp1102
S'y'
I6
sS'x'
I26
sg65
g66
sg78
g79
sg84
Nsba(isquare
Square
p1103
(dp1104
S'y'
I6
sS'x'
I27
sg65
g66
sg78
g79
sg84
Nsba(isquare
Square
p1105
(dp1106
S'y'
I6
sS'x'
I28
sg65
g66
sg78
g79
sg84
Nsba(isquare
Square
p1107
(dp1108
S'y'
I6
sS'x'
I29
sg65
g66
sg78
g79
sg84
Nsba(isquare
Square
p1109
(dp1110
S'y'
I6
sS'x'
I30
sg65
g66
sg78
g79
sg84
Nsba(isquare
Square
p1111
(dp1112
S'y'
I6
sS'x'
I31
sg65
g66
sg78
g79
sg84
Nsba(isquare
Square
p1113
(dp1114
S'y'
I6
sS'x'
I32
sg65
g66
sg78
g79
sg84
Nsba(isquare
Square
p1115
(dp1116
S'y'
I6
sS'x'
I33
sg65
g66
sg78
g79
sg84
Nsba(isquare
Square
p1117
(dp1118
S'y'
I6
sS'x'
I34
sg65
g66
sg78
g79
sg84
Nsba(isquare
Square
p1119
(dp1120
S'y'
I6
sS'x'
I35
sg65
g66
sg78
g79
sg84
Nsba(isquare
Square
p1121
(dp1122
S'y'
I6
sS'x'
I36
sg65
g66
sg78
g79
sg84
Nsba(isquare
Square
p1123
(dp1124
S'y'
I6
sS'x'
I37
sg65
g66
sg78
g79
sg84
Nsba(isquare
Square
p1125
(dp1126
S'y'
I6
sS'x'
I38
sg65
g66
sg78
g79
sg84
Nsba(isquare
Square
p1127
(dp1128
S'y'
I6
sS'x'
I39
sg65
g66
sg78
g79
sg84
Nsba(isquare
Square
p1129
(dp1130
S'y'
I6
sS'x'
I40
sg65
g66
sg78
g79
sg84
Nsba(isquare
Square
p1131
(dp1132
S'y'
I6
sS'x'
I41
sg65
g66
sg78
g79
sg84
Nsba(isquare
Square
p1133
(dp1134
S'y'
I6
sS'x'
I42
sg65
g66
sg78
g79
sg84
Nsba(isquare
Square
p1135
(dp1136
S'y'
I6
sS'x'
I43
sg65
g66
sg78
g79
sg84
Nsba(isquare
Square
p1137
(dp1138
S'y'
I6
sS'x'
I44
sg65
g66
sg78
g79
sg84
Nsba(isquare
Square
p1139
(dp1140
S'y'
I6
sS'x'
I45
sg65
g66
sg78
g79
sg84
Nsba(isquare
Square
p1141
(dp1142
S'y'
I6
sS'x'
I46
sg65
g66
sg78
g79
sg84
Nsba(isquare
Square
p1143
(dp1144
S'y'
I6
sS'x'
I47
sg65
g66
sg78
g79
sg84
Nsba(isquare
Square
p1145
(dp1146
S'y'
I6
sS'x'
I48
sg65
g66
sg78
g79
sg84
Nsba(isquare
Square
p1147
(dp1148
S'y'
I6
sS'x'
I49
sg65
g66
sg78
g79
sg84
Nsba(isquare
Square
p1149
(dp1150
S'y'
I6
sS'x'
I50
sg65
g66
sg78
g79
sg84
Nsba(isquare
Square
p1151
(dp1152
S'y'
I6
sS'x'
I51
sg65
g66
sg78
g79
sg84
Nsba(isquare
Square
p1153
(dp1154
S'y'
I6
sS'x'
I52
sg65
g66
sg78
g79
sg84
Nsba(isquare
Square
p1155
(dp1156
S'y'
I6
sS'x'
I53
sg65
g66
sg78
g79
sg84
Nsba(isquare
Square
p1157
(dp1158
S'y'
I6
sS'x'
I54
sg65
g66
sg78
g79
sg84
Nsba(isquare
Square
p1159
(dp1160
S'y'
I6
sS'x'
I55
sg65
g66
sg78
g79
sg84
Nsba(isquare
Square
p1161
(dp1162
S'y'
I6
sS'x'
I56
sg65
g66
sg78
g79
sg84
Nsba(isquare
Square
p1163
(dp1164
S'y'
I6
sS'x'
I57
sg65
g66
sg78
g79
sg84
Nsba(isquare
Square
p1165
(dp1166
S'y'
I6
sS'x'
I58
sg65
g66
sg78
g79
sg84
Nsba(isquare
Square
p1167
(dp1168
S'y'
I6
sS'x'
I59
sg65
g66
sg78
g79
sg84
Nsba(isquare
Square
p1169
(dp1170
S'y'
I6
sS'x'
I60
sg65
g66
sg78
g79
sg84
Nsba(isquare
Square
p1171
(dp1172
S'y'
I6
sS'x'
I61
sg65
g66
sg78
g79
sg84
Nsba(isquare
Square
p1173
(dp1174
S'y'
I6
sS'x'
I62
sg65
g66
sg78
g79
sg84
Nsba(isquare
Square
p1175
(dp1176
S'y'
I6
sS'x'
I63
sg65
g66
sg78
g79
sg84
Nsba(isquare
Square
p1177
(dp1178
S'y'
I6
sS'x'
I64
sg65
g66
sg78
g79
sg84
Nsba(isquare
Square
p1179
(dp1180
S'y'
I6
sS'x'
I65
sg65
g66
sg78
g79
sg84
Nsba(isquare
Square
p1181
(dp1182
S'y'
I6
sS'x'
I66
sg65
g66
sg78
g79
sg84
Nsba(isquare
Square
p1183
(dp1184
S'y'
I6
sS'x'
I67
sg65
g66
sg78
g79
sg84
Nsba(isquare
Square
p1185
(dp1186
S'y'
I6
sS'x'
I68
sg65
g66
sg78
g79
sg84
Nsba(isquare
Square
p1187
(dp1188
S'y'
I6
sS'x'
I69
sg65
g66
sg78
g79
sg84
Nsba(isquare
Square
p1189
(dp1190
S'y'
I6
sS'x'
I70
sg65
g66
sg78
g79
sg84
Nsba(isquare
Square
p1191
(dp1192
S'y'
I6
sS'x'
I71
sg65
g66
sg78
g79
sg84
Nsba(isquare
Square
p1193
(dp1194
S'y'
I6
sS'x'
I72
sg65
g66
sg78
g79
sg84
Nsba(isquare
Square
p1195
(dp1196
S'y'
I6
sS'x'
I73
sg65
g66
sg78
g79
sg84
Nsba(isquare
Square
p1197
(dp1198
S'y'
I6
sS'x'
I74
sg65
g66
sg78
g79
sg84
Nsba(isquare
Square
p1199
(dp1200
S'y'
I6
sS'x'
I75
sg65
g66
sg78
g79
sg84
Nsba(isquare
Square
p1201
(dp1202
S'y'
I6
sS'x'
I76
sg65
g66
sg78
g79
sg84
Nsba(isquare
Square
p1203
(dp1204
S'y'
I6
sS'x'
I77
sg65
g66
sg78
g79
sg84
Nsba(isquare
Square
p1205
(dp1206
S'y'
I6
sS'x'
I78
sg65
g66
sg78
g79
sg84
Nsba(isquare
Square
p1207
(dp1208
S'y'
I6
sS'x'
I79
sg65
g66
sg78
g79
sg84
Nsbaa(lp1209
(isquare
Square
p1210
(dp1211
S'y'
I7
sS'x'
I0
sg65
g66
sg78
g79
sg84
Nsba(isquare
Square
p1212
(dp1213
S'y'
I7
sS'x'
I1
sg65
g66
sg78
g79
sg84
Nsba(isquare
Square
p1214
(dp1215
S'y'
I7
sS'x'
I2
sg65
g66
sg78
g79
sg84
Nsba(isquare
Square
p1216
(dp1217
S'y'
I7
sS'x'
I3
sg65
g66
sg78
g79
sg84
Nsba(isquare
Square
p1218
(dp1219
S'y'
I7
sS'x'
I4
sg65
g66
sg78
g79
sg84
Nsba(isquare
Square
p1220
(dp1221
S'y'
I7
sS'x'
I5
sg65
g66
sg78
g79
sg84
Nsba(isquare
Square
p1222
(dp1223
S'y'
I7
sS'x'
I6
sg65
g66
sg78
g79
sg84
Nsba(isquare
Square
p1224
(dp1225
S'y'
I7
sS'x'
I7
sg65
g66
sg78
g79
sg84
Nsba(isquare
Square
p1226
(dp1227
S'y'
I7
sS'x'
I8
sg65
g66
sg78
g79
sg84
Nsba(isquare
Square
p1228
(dp1229
S'y'
I7
sS'x'
I9
sg65
g66
sg78
g79
sg84
Nsba(isquare
Square
p1230
(dp1231
S'y'
I7
sS'x'
I10
sg65
g66
sg78
g79
sg84
Nsba(isquare
Square
p1232
(dp1233
S'y'
I7
sS'x'
I11
sg65
g66
sg78
g79
sg84
Nsba(isquare
Square
p1234
(dp1235
S'y'
I7
sS'x'
I12
sg65
g66
sg78
g79
sg84
Nsba(isquare
Square
p1236
(dp1237
S'y'
I7
sS'x'
I13
sg65
g66
sg78
g79
sg84
Nsba(isquare
Square
p1238
(dp1239
S'y'
I7
sS'x'
I14
sg65
g66
sg78
g79
sg84
Nsba(isquare
Square
p1240
(dp1241
S'y'
I7
sS'x'
I15
sg65
g66
sg78
g79
sg84
Nsba(isquare
Square
p1242
(dp1243
S'y'
I7
sS'x'
I16
sg65
g66
sg78
g79
sg84
Nsba(isquare
Square
p1244
(dp1245
S'y'
I7
sS'x'
I17
sg65
g66
sg78
g79
sg84
Nsba(isquare
Square
p1246
(dp1247
S'y'
I7
sS'x'
I18
sg65
g66
sg78
g79
sg84
Nsba(isquare
Square
p1248
(dp1249
S'y'
I7
sS'x'
I19
sg65
g66
sg78
g79
sg84
Nsba(isquare
Square
p1250
(dp1251
S'y'
I7
sS'x'
I20
sg65
g66
sg78
g79
sg84
Nsba(isquare
Square
p1252
(dp1253
S'y'
I7
sS'x'
I21
sg65
g66
sg78
g79
sg84
Nsba(isquare
Square
p1254
(dp1255
S'y'
I7
sS'x'
I22
sg65
g66
sg78
g79
sg84
Nsba(isquare
Square
p1256
(dp1257
S'y'
I7
sS'x'
I23
sg65
g66
sg78
g79
sg84
Nsba(isquare
Square
p1258
(dp1259
S'y'
I7
sS'x'
I24
sg65
g66
sg78
g79
sg84
Nsba(isquare
Square
p1260
(dp1261
S'y'
I7
sS'x'
I25
sg65
g66
sg78
g79
sg84
Nsba(isquare
Square
p1262
(dp1263
S'y'
I7
sS'x'
I26
sg65
g66
sg78
g79
sg84
Nsba(isquare
Square
p1264
(dp1265
S'y'
I7
sS'x'
I27
sg65
g66
sg78
g79
sg84
Nsba(isquare
Square
p1266
(dp1267
S'y'
I7
sS'x'
I28
sg65
g66
sg78
g79
sg84
Nsba(isquare
Square
p1268
(dp1269
S'y'
I7
sS'x'
I29
sg65
g66
sg78
g79
sg84
Nsba(isquare
Square
p1270
(dp1271
S'y'
I7
sS'x'
I30
sg65
g66
sg78
g79
sg84
Nsba(isquare
Square
p1272
(dp1273
S'y'
I7
sS'x'
I31
sg65
g66
sg78
g79
sg84
Nsba(isquare
Square
p1274
(dp1275
S'y'
I7
sS'x'
I32
sg65
g66
sg78
g79
sg84
Nsba(isquare
Square
p1276
(dp1277
S'y'
I7
sS'x'
I33
sg65
g66
sg78
g79
sg84
Nsba(isquare
Square
p1278
(dp1279
S'y'
I7
sS'x'
I34
sg65
g66
sg78
g79
sg84
Nsba(isquare
Square
p1280
(dp1281
S'y'
I7
sS'x'
I35
sg65
g66
sg78
g79
sg84
Nsba(isquare
Square
p1282
(dp1283
S'y'
I7
sS'x'
I36
sg65
g66
sg78
g79
sg84
Nsba(isquare
Square
p1284
(dp1285
S'y'
I7
sS'x'
I37
sg65
g66
sg78
g79
sg84
Nsba(isquare
Square
p1286
(dp1287
S'y'
I7
sS'x'
I38
sg65
g66
sg78
g79
sg84
Nsba(isquare
Square
p1288
(dp1289
S'y'
I7
sS'x'
I39
sg65
g66
sg78
g79
sg84
Nsba(isquare
Square
p1290
(dp1291
S'y'
I7
sS'x'
I40
sg65
g66
sg78
g79
sg84
Nsba(isquare
Square
p1292
(dp1293
S'y'
I7
sS'x'
I41
sg65
g66
sg78
g79
sg84
Nsba(isquare
Square
p1294
(dp1295
S'y'
I7
sS'x'
I42
sg65
g66
sg78
g79
sg84
Nsba(isquare
Square
p1296
(dp1297
S'y'
I7
sS'x'
I43
sg65
g66
sg78
g79
sg84
Nsba(isquare
Square
p1298
(dp1299
S'y'
I7
sS'x'
I44
sg65
g66
sg78
g79
sg84
Nsba(isquare
Square
p1300
(dp1301
S'y'
I7
sS'x'
I45
sg65
g66
sg78
g79
sg84
Nsba(isquare
Square
p1302
(dp1303
S'y'
I7
sS'x'
I46
sg65
g66
sg78
g79
sg84
Nsba(isquare
Square
p1304
(dp1305
S'y'
I7
sS'x'
I47
sg65
g66
sg78
g79
sg84
Nsba(isquare
Square
p1306
(dp1307
S'y'
I7
sS'x'
I48
sg65
g66
sg78
g79
sg84
Nsba(isquare
Square
p1308
(dp1309
S'y'
I7
sS'x'
I49
sg65
g66
sg78
g79
sg84
Nsba(isquare
Square
p1310
(dp1311
S'y'
I7
sS'x'
I50
sg65
g66
sg78
g79
sg84
Nsba(isquare
Square
p1312
(dp1313
S'y'
I7
sS'x'
I51
sg65
g66
sg78
g79
sg84
Nsba(isquare
Square
p1314
(dp1315
S'y'
I7
sS'x'
I52
sg65
g66
sg78
g79
sg84
Nsba(isquare
Square
p1316
(dp1317
S'y'
I7
sS'x'
I53
sg65
g66
sg78
g79
sg84
Nsba(isquare
Square
p1318
(dp1319
S'y'
I7
sS'x'
I54
sg65
g66
sg78
g79
sg84
Nsba(isquare
Square
p1320
(dp1321
S'y'
I7
sS'x'
I55
sg65
g66
sg78
g79
sg84
Nsba(isquare
Square
p1322
(dp1323
S'y'
I7
sS'x'
I56
sg65
g66
sg78
g79
sg84
Nsba(isquare
Square
p1324
(dp1325
S'y'
I7
sS'x'
I57
sg65
g66
sg78
g79
sg84
Nsba(isquare
Square
p1326
(dp1327
S'y'
I7
sS'x'
I58
sg65
g66
sg78
g79
sg84
Nsba(isquare
Square
p1328
(dp1329
S'y'
I7
sS'x'
I59
sg65
g66
sg78
g79
sg84
Nsba(isquare
Square
p1330
(dp1331
S'y'
I7
sS'x'
I60
sg65
g66
sg78
g79
sg84
Nsba(isquare
Square
p1332
(dp1333
S'y'
I7
sS'x'
I61
sg65
g66
sg78
g79
sg84
Nsba(isquare
Square
p1334
(dp1335
S'y'
I7
sS'x'
I62
sg65
g66
sg78
g79
sg84
Nsba(isquare
Square
p1336
(dp1337
S'y'
I7
sS'x'
I63
sg65
g66
sg78
g79
sg84
Nsba(isquare
Square
p1338
(dp1339
S'y'
I7
sS'x'
I64
sg65
g66
sg78
g79
sg84
Nsba(isquare
Square
p1340
(dp1341
S'y'
I7
sS'x'
I65
sg65
g66
sg78
g79
sg84
Nsba(isquare
Square
p1342
(dp1343
S'y'
I7
sS'x'
I66
sg65
g66
sg78
g79
sg84
Nsba(isquare
Square
p1344
(dp1345
S'y'
I7
sS'x'
I67
sg65
g66
sg78
g79
sg84
Nsba(isquare
Square
p1346
(dp1347
S'y'
I7
sS'x'
I68
sg65
g66
sg78
g79
sg84
Nsba(isquare
Square
p1348
(dp1349
S'y'
I7
sS'x'
I69
sg65
g66
sg78
g79
sg84
Nsba(isquare
Square
p1350
(dp1351
S'y'
I7
sS'x'
I70
sg65
g66
sg78
g79
sg84
Nsba(isquare
Square
p1352
(dp1353
S'y'
I7
sS'x'
I71
sg65
g66
sg78
g79
sg84
Nsba(isquare
Square
p1354
(dp1355
S'y'
I7
sS'x'
I72
sg65
g66
sg78
g79
sg84
Nsba(isquare
Square
p1356
(dp1357
S'y'
I7
sS'x'
I73
sg65
g66
sg78
g79
sg84
Nsba(isquare
Square
p1358
(dp1359
S'y'
I7
sS'x'
I74
sg65
g66
sg78
g79
sg84
Nsba(isquare
Square
p1360
(dp1361
S'y'
I7
sS'x'
I75
sg65
g66
sg78
g79
sg84
Nsba(isquare
Square
p1362
(dp1363
S'y'
I7
sS'x'
I76
sg65
g66
sg78
g79
sg84
Nsba(isquare
Square
p1364
(dp1365
S'y'
I7
sS'x'
I77
sg65
g66
sg78
g79
sg84
Nsba(isquare
Square
p1366
(dp1367
S'y'
I7
sS'x'
I78
sg65
g66
sg78
g79
sg84
Nsba(isquare
Square
p1368
(dp1369
S'y'
I7
sS'x'
I79
sg65
g66
sg78
g79
sg84
Nsbaa(lp1370
(isquare
Square
p1371
(dp1372
S'y'
I8
sS'x'
I0
sg65
g66
sg78
g79
sg84
Nsba(isquare
Square
p1373
(dp1374
S'y'
I8
sS'x'
I1
sg65
g66
sg78
g79
sg84
Nsba(isquare
Square
p1375
(dp1376
S'y'
I8
sS'x'
I2
sg65
g66
sg78
g79
sg84
Nsba(isquare
Square
p1377
(dp1378
S'y'
I8
sS'x'
I3
sg65
g66
sg78
g79
sg84
Nsba(isquare
Square
p1379
(dp1380
S'y'
I8
sS'x'
I4
sg65
g66
sg78
g79
sg84
Nsba(isquare
Square
p1381
(dp1382
S'y'
I8
sS'x'
I5
sg65
g66
sg78
g79
sg84
Nsba(isquare
Square
p1383
(dp1384
S'y'
I8
sS'x'
I6
sg65
g66
sg78
g79
sg84
Nsba(isquare
Square
p1385
(dp1386
S'y'
I8
sS'x'
I7
sg65
g66
sg78
g79
sg84
Nsba(isquare
Square
p1387
(dp1388
S'y'
I8
sS'x'
I8
sg65
g66
sg78
g79
sg84
Nsba(isquare
Square
p1389
(dp1390
S'y'
I8
sS'x'
I9
sg65
g66
sg78
g79
sg84
Nsba(isquare
Square
p1391
(dp1392
S'y'
I8
sS'x'
I10
sg65
g66
sg78
g79
sg84
Nsba(isquare
Square
p1393
(dp1394
S'y'
I8
sS'x'
I11
sg65
g66
sg78
g79
sg84
Nsba(isquare
Square
p1395
(dp1396
S'y'
I8
sS'x'
I12
sg65
g66
sg78
g79
sg84
Nsba(isquare
Square
p1397
(dp1398
S'y'
I8
sS'x'
I13
sg65
g66
sg78
g79
sg84
Nsba(isquare
Square
p1399
(dp1400
S'y'
I8
sS'x'
I14
sg65
g66
sg78
g79
sg84
Nsba(isquare
Square
p1401
(dp1402
S'y'
I8
sS'x'
I15
sg65
g66
sg78
g79
sg84
Nsba(isquare
Square
p1403
(dp1404
S'y'
I8
sS'x'
I16
sg65
g66
sg78
g79
sg84
Nsba(isquare
Square
p1405
(dp1406
S'y'
I8
sS'x'
I17
sg65
g66
sg78
g79
sg84
Nsba(isquare
Square
p1407
(dp1408
S'y'
I8
sS'x'
I18
sg65
g66
sg78
g79
sg84
Nsba(isquare
Square
p1409
(dp1410
S'y'
I8
sS'x'
I19
sg65
g66
sg78
g79
sg84
Nsba(isquare
Square
p1411
(dp1412
S'y'
I8
sS'x'
I20
sg65
g66
sg78
g79
sg84
Nsba(isquare
Square
p1413
(dp1414
S'y'
I8
sS'x'
I21
sg65
g66
sg78
g79
sg84
Nsba(isquare
Square
p1415
(dp1416
S'y'
I8
sS'x'
I22
sg65
g66
sg78
g79
sg84
Nsba(isquare
Square
p1417
(dp1418
S'y'
I8
sS'x'
I23
sg65
g66
sg78
g79
sg84
Nsba(isquare
Square
p1419
(dp1420
S'y'
I8
sS'x'
I24
sg65
g66
sg78
g79
sg84
Nsba(isquare
Square
p1421
(dp1422
S'y'
I8
sS'x'
I25
sg65
g66
sg78
g79
sg84
Nsba(isquare
Square
p1423
(dp1424
S'y'
I8
sS'x'
I26
sg65
g66
sg78
g79
sg84
Nsba(isquare
Square
p1425
(dp1426
S'y'
I8
sS'x'
I27
sg65
g66
sg78
g79
sg84
Nsba(isquare
Square
p1427
(dp1428
S'y'
I8
sS'x'
I28
sg65
g66
sg78
g79
sg84
Nsba(isquare
Square
p1429
(dp1430
S'y'
I8
sS'x'
I29
sg65
g66
sg78
g79
sg84
Nsba(isquare
Square
p1431
(dp1432
S'y'
I8
sS'x'
I30
sg65
g66
sg78
g79
sg84
Nsba(isquare
Square
p1433
(dp1434
S'y'
I8
sS'x'
I31
sg65
g66
sg78
g79
sg84
Nsba(isquare
Square
p1435
(dp1436
S'y'
I8
sS'x'
I32
sg65
g66
sg78
g79
sg84
Nsba(isquare
Square
p1437
(dp1438
S'y'
I8
sS'x'
I33
sg65
g66
sg78
g79
sg84
Nsba(isquare
Square
p1439
(dp1440
S'y'
I8
sS'x'
I34
sg65
g66
sg78
g79
sg84
Nsba(isquare
Square
p1441
(dp1442
S'y'
I8
sS'x'
I35
sg65
g66
sg78
g79
sg84
Nsba(isquare
Square
p1443
(dp1444
S'y'
I8
sS'x'
I36
sg65
g66
sg78
g79
sg84
Nsba(isquare
Square
p1445
(dp1446
S'y'
I8
sS'x'
I37
sg65
g66
sg78
g79
sg84
Nsba(isquare
Square
p1447
(dp1448
S'y'
I8
sS'x'
I38
sg65
g66
sg78
g79
sg84
Nsba(isquare
Square
p1449
(dp1450
S'y'
I8
sS'x'
I39
sg65
g66
sg78
g79
sg84
Nsba(isquare
Square
p1451
(dp1452
S'y'
I8
sS'x'
I40
sg65
g66
sg78
g79
sg84
Nsba(isquare
Square
p1453
(dp1454
S'y'
I8
sS'x'
I41
sg65
g66
sg78
g79
sg84
Nsba(isquare
Square
p1455
(dp1456
S'y'
I8
sS'x'
I42
sg65
g66
sg78
g79
sg84
Nsba(isquare
Square
p1457
(dp1458
S'y'
I8
sS'x'
I43
sg65
g66
sg78
g79
sg84
Nsba(isquare
Square
p1459
(dp1460
S'y'
I8
sS'x'
I44
sg65
g66
sg78
g79
sg84
Nsba(isquare
Square
p1461
(dp1462
S'y'
I8
sS'x'
I45
sg65
g66
sg78
g79
sg84
Nsba(isquare
Square
p1463
(dp1464
S'y'
I8
sS'x'
I46
sg65
g66
sg78
g79
sg84
Nsba(isquare
Square
p1465
(dp1466
S'y'
I8
sS'x'
I47
sg65
g66
sg78
g79
sg84
Nsba(isquare
Square
p1467
(dp1468
S'y'
I8
sS'x'
I48
sg65
g66
sg78
g79
sg84
Nsba(isquare
Square
p1469
(dp1470
S'y'
I8
sS'x'
I49
sg65
g66
sg78
g79
sg84
Nsba(isquare
Square
p1471
(dp1472
S'y'
I8
sS'x'
I50
sg65
g66
sg78
g79
sg84
Nsba(isquare
Square
p1473
(dp1474
S'y'
I8
sS'x'
I51
sg65
g66
sg78
g79
sg84
Nsba(isquare
Square
p1475
(dp1476
S'y'
I8
sS'x'
I52
sg65
g66
sg78
g79
sg84
Nsba(isquare
Square
p1477
(dp1478
S'y'
I8
sS'x'
I53
sg65
g66
sg78
g79
sg84
Nsba(isquare
Square
p1479
(dp1480
S'y'
I8
sS'x'
I54
sg65
g66
sg78
g79
sg84
Nsba(isquare
Square
p1481
(dp1482
S'y'
I8
sS'x'
I55
sg65
g66
sg78
g79
sg84
Nsba(isquare
Square
p1483
(dp1484
S'y'
I8
sS'x'
I56
sg65
g66
sg78
g79
sg84
Nsba(isquare
Square
p1485
(dp1486
S'y'
I8
sS'x'
I57
sg65
g66
sg78
g79
sg84
Nsba(isquare
Square
p1487
(dp1488
S'y'
I8
sS'x'
I58
sg65
g66
sg78
g79
sg84
Nsba(isquare
Square
p1489
(dp1490
S'y'
I8
sS'x'
I59
sg65
g66
sg78
g79
sg84
Nsba(isquare
Square
p1491
(dp1492
S'y'
I8
sS'x'
I60
sg65
g66
sg78
g79
sg84
Nsba(isquare
Square
p1493
(dp1494
S'y'
I8
sS'x'
I61
sg65
g66
sg78
g79
sg84
Nsba(isquare
Square
p1495
(dp1496
S'y'
I8
sS'x'
I62
sg65
g66
sg78
g79
sg84
Nsba(isquare
Square
p1497
(dp1498
S'y'
I8
sS'x'
I63
sg65
g66
sg78
g79
sg84
Nsba(isquare
Square
p1499
(dp1500
S'y'
I8
sS'x'
I64
sg65
g66
sg78
g79
sg84
Nsba(isquare
Square
p1501
(dp1502
S'y'
I8
sS'x'
I65
sg65
g66
sg78
g79
sg84
Nsba(isquare
Square
p1503
(dp1504
S'y'
I8
sS'x'
I66
sg65
g66
sg78
g79
sg84
Nsba(isquare
Square
p1505
(dp1506
S'y'
I8
sS'x'
I67
sg65
g66
sg78
g79
sg84
Nsba(isquare
Square
p1507
(dp1508
S'y'
I8
sS'x'
I68
sg65
g66
sg78
g79
sg84
Nsba(isquare
Square
p1509
(dp1510
S'y'
I8
sS'x'
I69
sg65
g66
sg78
g79
sg84
Nsba(isquare
Square
p1511
(dp1512
S'y'
I8
sS'x'
I70
sg65
g66
sg78
g79
sg84
Nsba(isquare
Square
p1513
(dp1514
S'y'
I8
sS'x'
I71
sg65
g66
sg78
g79
sg84
Nsba(isquare
Square
p1515
(dp1516
S'y'
I8
sS'x'
I72
sg65
g66
sg78
g79
sg84
Nsba(isquare
Square
p1517
(dp1518
S'y'
I8
sS'x'
I73
sg65
g66
sg78
g79
sg84
Nsba(isquare
Square
p1519
(dp1520
S'y'
I8
sS'x'
I74
sg65
g66
sg78
g79
sg84
Nsba(isquare
Square
p1521
(dp1522
S'y'
I8
sS'x'
I75
sg65
g66
sg78
g79
sg84
Nsba(isquare
Square
p1523
(dp1524
S'y'
I8
sS'x'
I76
sg65
g66
sg78
g79
sg84
Nsba(isquare
Square
p1525
(dp1526
S'y'
I8
sS'x'
I77
sg65
g66
sg78
g79
sg84
Nsba(isquare
Square
p1527
(dp1528
S'y'
I8
sS'x'
I78
sg65
g66
sg78
g79
sg84
Nsba(isquare
Square
p1529
(dp1530
S'y'
I8
sS'x'
I79
sg65
g66
sg78
g79
sg84
Nsbaa(lp1531
(isquare
Square
p1532
(dp1533
S'y'
I9
sS'x'
I0
sg65
g66
sg78
g79
sg84
Nsba(isquare
Square
p1534
(dp1535
S'y'
I9
sS'x'
I1
sg65
g66
sg78
g79
sg84
Nsba(isquare
Square
p1536
(dp1537
S'y'
I9
sS'x'
I2
sg65
g66
sg78
g79
sg84
Nsba(isquare
Square
p1538
(dp1539
S'y'
I9
sS'x'
I3
sg65
g66
sg78
g79
sg84
Nsba(isquare
Square
p1540
(dp1541
S'y'
I9
sS'x'
I4
sg65
g66
sg78
g79
sg84
Nsba(isquare
Square
p1542
(dp1543
S'y'
I9
sS'x'
I5
sg65
g66
sg78
g79
sg84
Nsba(isquare
Square
p1544
(dp1545
S'y'
I9
sS'x'
I6
sg65
g66
sg78
g79
sg84
Nsba(isquare
Square
p1546
(dp1547
S'y'
I9
sS'x'
I7
sg65
g66
sg78
g79
sg84
Nsba(isquare
Square
p1548
(dp1549
S'y'
I9
sS'x'
I8
sg65
g66
sg78
g79
sg84
Nsba(isquare
Square
p1550
(dp1551
S'y'
I9
sS'x'
I9
sg65
g66
sg78
g79
sg84
Nsba(isquare
Square
p1552
(dp1553
S'y'
I9
sS'x'
I10
sg65
g66
sg78
g79
sg84
Nsba(isquare
Square
p1554
(dp1555
S'y'
I9
sS'x'
I11
sg65
g66
sg78
g79
sg84
Nsba(isquare
Square
p1556
(dp1557
S'y'
I9
sS'x'
I12
sg65
g66
sg78
g79
sg84
Nsba(isquare
Square
p1558
(dp1559
S'y'
I9
sS'x'
I13
sg65
g66
sg78
g79
sg84
Nsba(isquare
Square
p1560
(dp1561
S'y'
I9
sS'x'
I14
sg65
g66
sg78
g79
sg84
Nsba(isquare
Square
p1562
(dp1563
S'y'
I9
sS'x'
I15
sg65
g66
sg78
g79
sg84
Nsba(isquare
Square
p1564
(dp1565
S'y'
I9
sS'x'
I16
sg65
g66
sg78
g79
sg84
Nsba(isquare
Square
p1566
(dp1567
S'y'
I9
sS'x'
I17
sg65
g66
sg78
g79
sg84
Nsba(isquare
Square
p1568
(dp1569
S'y'
I9
sS'x'
I18
sg65
g66
sg78
g79
sg84
Nsba(isquare
Square
p1570
(dp1571
S'y'
I9
sS'x'
I19
sg65
g66
sg78
g79
sg84
Nsba(isquare
Square
p1572
(dp1573
S'y'
I9
sS'x'
I20
sg65
g66
sg78
g79
sg84
Nsba(isquare
Square
p1574
(dp1575
S'y'
I9
sS'x'
I21
sg65
g66
sg78
g79
sg84
Nsba(isquare
Square
p1576
(dp1577
S'y'
I9
sS'x'
I22
sg65
g66
sg78
g79
sg84
Nsba(isquare
Square
p1578
(dp1579
S'y'
I9
sS'x'
I23
sg65
g66
sg78
g79
sg84
Nsba(isquare
Square
p1580
(dp1581
S'y'
I9
sS'x'
I24
sg65
g66
sg78
g79
sg84
Nsba(isquare
Square
p1582
(dp1583
S'y'
I9
sS'x'
I25
sg65
g66
sg78
g79
sg84
Nsba(isquare
Square
p1584
(dp1585
S'y'
I9
sS'x'
I26
sg65
g66
sg78
g79
sg84
Nsba(isquare
Square
p1586
(dp1587
S'y'
I9
sS'x'
I27
sg65
g66
sg78
g79
sg84
Nsba(isquare
Square
p1588
(dp1589
S'y'
I9
sS'x'
I28
sg65
g66
sg78
g79
sg84
Nsba(isquare
Square
p1590
(dp1591
S'y'
I9
sS'x'
I29
sg65
g66
sg78
g79
sg84
Nsba(isquare
Square
p1592
(dp1593
S'y'
I9
sS'x'
I30
sg65
g66
sg78
g79
sg84
Nsba(isquare
Square
p1594
(dp1595
S'y'
I9
sS'x'
I31
sg65
g66
sg78
g79
sg84
Nsba(isquare
Square
p1596
(dp1597
S'y'
I9
sS'x'
I32
sg65
g66
sg78
g79
sg84
Nsba(isquare
Square
p1598
(dp1599
S'y'
I9
sS'x'
I33
sg65
g66
sg78
g79
sg84
Nsba(isquare
Square
p1600
(dp1601
S'y'
I9
sS'x'
I34
sg65
g66
sg78
g79
sg84
Nsba(isquare
Square
p1602
(dp1603
S'y'
I9
sS'x'
I35
sg65
g66
sg78
g79
sg84
Nsba(isquare
Square
p1604
(dp1605
S'y'
I9
sS'x'
I36
sg65
g66
sg78
g79
sg84
Nsba(isquare
Square
p1606
(dp1607
S'y'
I9
sS'x'
I37
sg65
g66
sg78
g79
sg84
Nsba(isquare
Square
p1608
(dp1609
S'y'
I9
sS'x'
I38
sg65
g66
sg78
g79
sg84
Nsba(isquare
Square
p1610
(dp1611
S'y'
I9
sS'x'
I39
sg65
g66
sg78
g79
sg84
Nsba(isquare
Square
p1612
(dp1613
S'y'
I9
sS'x'
I40
sg65
g66
sg78
g79
sg84
Nsba(isquare
Square
p1614
(dp1615
S'y'
I9
sS'x'
I41
sg65
g66
sg78
g79
sg84
Nsba(isquare
Square
p1616
(dp1617
S'y'
I9
sS'x'
I42
sg65
g66
sg78
g79
sg84
Nsba(isquare
Square
p1618
(dp1619
S'y'
I9
sS'x'
I43
sg65
g66
sg78
g79
sg84
Nsba(isquare
Square
p1620
(dp1621
S'y'
I9
sS'x'
I44
sg65
g66
sg78
g79
sg84
Nsba(isquare
Square
p1622
(dp1623
S'y'
I9
sS'x'
I45
sg65
g66
sg78
g79
sg84
Nsba(isquare
Square
p1624
(dp1625
S'y'
I9
sS'x'
I46
sg65
g66
sg78
g79
sg84
Nsba(isquare
Square
p1626
(dp1627
S'y'
I9
sS'x'
I47
sg65
g66
sg78
g79
sg84
Nsba(isquare
Square
p1628
(dp1629
S'y'
I9
sS'x'
I48
sg65
g66
sg78
g79
sg84
Nsba(isquare
Square
p1630
(dp1631
S'y'
I9
sS'x'
I49
sg65
g66
sg78
g79
sg84
Nsba(isquare
Square
p1632
(dp1633
S'y'
I9
sS'x'
I50
sg65
g66
sg78
g79
sg84
Nsba(isquare
Square
p1634
(dp1635
S'y'
I9
sS'x'
I51
sg65
g66
sg78
g79
sg84
Nsba(isquare
Square
p1636
(dp1637
S'y'
I9
sS'x'
I52
sg65
g66
sg78
g79
sg84
Nsba(isquare
Square
p1638
(dp1639
S'y'
I9
sS'x'
I53
sg65
g66
sg78
g79
sg84
Nsba(isquare
Square
p1640
(dp1641
S'y'
I9
sS'x'
I54
sg65
g66
sg78
g79
sg84
Nsba(isquare
Square
p1642
(dp1643
S'y'
I9
sS'x'
I55
sg65
g66
sg78
g79
sg84
Nsba(isquare
Square
p1644
(dp1645
S'y'
I9
sS'x'
I56
sg65
g66
sg78
g79
sg84
Nsba(isquare
Square
p1646
(dp1647
S'y'
I9
sS'x'
I57
sg65
g66
sg78
g79
sg84
Nsba(isquare
Square
p1648
(dp1649
S'y'
I9
sS'x'
I58
sg65
g66
sg78
g79
sg84
Nsba(isquare
Square
p1650
(dp1651
S'y'
I9
sS'x'
I59
sg65
g66
sg78
g79
sg84
Nsba(isquare
Square
p1652
(dp1653
S'y'
I9
sS'x'
I60
sg65
g66
sg78
g79
sg84
Nsba(isquare
Square
p1654
(dp1655
S'y'
I9
sS'x'
I61
sg65
g66
sg78
g79
sg84
Nsba(isquare
Square
p1656
(dp1657
S'y'
I9
sS'x'
I62
sg65
g66
sg78
g79
sg84
Nsba(isquare
Square
p1658
(dp1659
S'y'
I9
sS'x'
I63
sg65
g66
sg78
g79
sg84
Nsba(isquare
Square
p1660
(dp1661
S'y'
I9
sS'x'
I64
sg65
g66
sg78
g79
sg84
Nsba(isquare
Square
p1662
(dp1663
S'y'
I9
sS'x'
I65
sg65
g66
sg78
g79
sg84
Nsba(isquare
Square
p1664
(dp1665
S'y'
I9
sS'x'
I66
sg65
g66
sg78
g79
sg84
Nsba(isquare
Square
p1666
(dp1667
S'y'
I9
sS'x'
I67
sg65
g66
sg78
g79
sg84
Nsba(isquare
Square
p1668
(dp1669
S'y'
I9
sS'x'
I68
sg65
g66
sg78
g79
sg84
Nsba(isquare
Square
p1670
(dp1671
S'y'
I9
sS'x'
I69
sg65
g66
sg78
g79
sg84
Nsba(isquare
Square
p1672
(dp1673
S'y'
I9
sS'x'
I70
sg65
g66
sg78
g79
sg84
Nsba(isquare
Square
p1674
(dp1675
S'y'
I9
sS'x'
I71
sg65
g66
sg78
g79
sg84
Nsba(isquare
Square
p1676
(dp1677
S'y'
I9
sS'x'
I72
sg65
g66
sg78
g79
sg84
Nsba(isquare
Square
p1678
(dp1679
S'y'
I9
sS'x'
I73
sg65
g66
sg78
g79
sg84
Nsba(isquare
Square
p1680
(dp1681
S'y'
I9
sS'x'
I74
sg65
g66
sg78
g79
sg84
Nsba(isquare
Square
p1682
(dp1683
S'y'
I9
sS'x'
I75
sg65
g66
sg78
g79
sg84
Nsba(isquare
Square
p1684
(dp1685
S'y'
I9
sS'x'
I76
sg65
g66
sg78
g79
sg84
Nsba(isquare
Square
p1686
(dp1687
S'y'
I9
sS'x'
I77
sg65
g66
sg78
g79
sg84
Nsba(isquare
Square
p1688
(dp1689
S'y'
I9
sS'x'
I78
sg65
g66
sg78
g79
sg84
Nsba(isquare
Square
p1690
(dp1691
S'y'
I9
sS'x'
I79
sg65
g66
sg78
g79
sg84
Nsbaa(lp1692
(isquare
Square
p1693
(dp1694
S'y'
I10
sS'x'
I0
sg65
g66
sg78
g79
sg84
Nsba(isquare
Square
p1695
(dp1696
S'y'
I10
sS'x'
I1
sg65
g66
sg78
g79
sg84
Nsba(isquare
Square
p1697
(dp1698
S'y'
I10
sS'x'
I2
sg65
g66
sg78
g79
sg84
Nsba(isquare
Square
p1699
(dp1700
S'y'
I10
sS'x'
I3
sg65
g66
sg78
g79
sg84
Nsba(isquare
Square
p1701
(dp1702
S'y'
I10
sS'x'
I4
sg65
g66
sg78
g79
sg84
Nsba(isquare
Square
p1703
(dp1704
S'y'
I10
sS'x'
I5
sg65
g66
sg78
g79
sg84
Nsba(isquare
Square
p1705
(dp1706
S'y'
I10
sS'x'
I6
sg65
g66
sg78
g79
sg84
Nsba(isquare
Square
p1707
(dp1708
S'y'
I10
sS'x'
I7
sg65
g66
sg78
g79
sg84
Nsba(isquare
Square
p1709
(dp1710
S'y'
I10
sS'x'
I8
sg65
g66
sg78
g79
sg84
Nsba(isquare
Square
p1711
(dp1712
S'y'
I10
sS'x'
I9
sg65
g66
sg78
g79
sg84
Nsba(isquare
Square
p1713
(dp1714
S'y'
I10
sS'x'
I10
sg65
g66
sg78
g79
sg84
Nsba(isquare
Square
p1715
(dp1716
S'y'
I10
sS'x'
I11
sg65
g66
sg78
g79
sg84
Nsba(isquare
Square
p1717
(dp1718
S'y'
I10
sS'x'
I12
sg65
g66
sg78
g79
sg84
Nsba(isquare
Square
p1719
(dp1720
S'y'
I10
sS'x'
I13
sg65
g66
sg78
g79
sg84
Nsba(isquare
Square
p1721
(dp1722
S'y'
I10
sS'x'
I14
sg65
g66
sg78
g79
sg84
Nsba(isquare
Square
p1723
(dp1724
S'y'
I10
sS'x'
I15
sg65
g66
sg78
g79
sg84
Nsba(isquare
Square
p1725
(dp1726
S'y'
I10
sS'x'
I16
sg65
g66
sg78
g79
sg84
Nsba(isquare
Square
p1727
(dp1728
S'y'
I10
sS'x'
I17
sg65
g66
sg78
g79
sg84
Nsba(isquare
Square
p1729
(dp1730
S'y'
I10
sS'x'
I18
sg65
g66
sg78
g79
sg84
Nsba(isquare
Square
p1731
(dp1732
S'y'
I10
sS'x'
I19
sg65
g66
sg78
g79
sg84
Nsba(isquare
Square
p1733
(dp1734
S'y'
I10
sS'x'
I20
sg65
g66
sg78
g79
sg84
Nsba(isquare
Square
p1735
(dp1736
S'y'
I10
sS'x'
I21
sg65
g66
sg78
g79
sg84
Nsba(isquare
Square
p1737
(dp1738
S'y'
I10
sS'x'
I22
sg65
g66
sg78
g79
sg84
Nsba(isquare
Square
p1739
(dp1740
S'y'
I10
sS'x'
I23
sg65
g66
sg78
g79
sg84
Nsba(isquare
Square
p1741
(dp1742
S'y'
I10
sS'x'
I24
sg65
g66
sg78
g79
sg84
Nsba(isquare
Square
p1743
(dp1744
S'y'
I10
sS'x'
I25
sg65
g66
sg78
g79
sg84
Nsba(isquare
Square
p1745
(dp1746
S'y'
I10
sS'x'
I26
sg65
g66
sg78
g79
sg84
Nsba(isquare
Square
p1747
(dp1748
S'y'
I10
sS'x'
I27
sg65
g66
sg78
g79
sg84
Nsba(isquare
Square
p1749
(dp1750
S'y'
I10
sS'x'
I28
sg65
g66
sg78
g79
sg84
Nsba(isquare
Square
p1751
(dp1752
S'y'
I10
sS'x'
I29
sg65
g66
sg78
g79
sg84
Nsba(isquare
Square
p1753
(dp1754
S'y'
I10
sS'x'
I30
sg65
g66
sg78
g79
sg84
Nsba(isquare
Square
p1755
(dp1756
S'y'
I10
sS'x'
I31
sg65
g66
sg78
g79
sg84
Nsba(isquare
Square
p1757
(dp1758
S'y'
I10
sS'x'
I32
sg65
g66
sg78
g79
sg84
Nsba(isquare
Square
p1759
(dp1760
S'y'
I10
sS'x'
I33
sg65
g66
sg78
g79
sg84
Nsba(isquare
Square
p1761
(dp1762
S'y'
I10
sS'x'
I34
sg65
g66
sg78
g79
sg84
Nsba(isquare
Square
p1763
(dp1764
S'y'
I10
sS'x'
I35
sg65
g66
sg78
g79
sg84
Nsba(isquare
Square
p1765
(dp1766
S'y'
I10
sS'x'
I36
sg65
g66
sg78
g79
sg84
Nsba(isquare
Square
p1767
(dp1768
S'y'
I10
sS'x'
I37
sg65
g66
sg78
g79
sg84
Nsba(isquare
Square
p1769
(dp1770
S'y'
I10
sS'x'
I38
sg65
g66
sg78
g79
sg84
Nsba(isquare
Square
p1771
(dp1772
S'y'
I10
sS'x'
I39
sg65
g66
sg78
g79
sg84
Nsba(isquare
Square
p1773
(dp1774
S'y'
I10
sS'x'
I40
sg65
g66
sg78
g79
sg84
Nsba(isquare
Square
p1775
(dp1776
S'y'
I10
sS'x'
I41
sg65
g66
sg78
g79
sg84
Nsba(isquare
Square
p1777
(dp1778
S'y'
I10
sS'x'
I42
sg65
g66
sg78
g79
sg84
Nsba(isquare
Square
p1779
(dp1780
S'y'
I10
sS'x'
I43
sg65
g66
sg78
g79
sg84
Nsba(isquare
Square
p1781
(dp1782
S'y'
I10
sS'x'
I44
sg65
g66
sg78
g79
sg84
Nsba(isquare
Square
p1783
(dp1784
S'y'
I10
sS'x'
I45
sg65
g66
sg78
g79
sg84
Nsba(isquare
Square
p1785
(dp1786
S'y'
I10
sS'x'
I46
sg65
g66
sg78
g79
sg84
Nsba(isquare
Square
p1787
(dp1788
S'y'
I10
sS'x'
I47
sg65
g66
sg78
g79
sg84
Nsba(isquare
Square
p1789
(dp1790
S'y'
I10
sS'x'
I48
sg65
g66
sg78
g79
sg84
Nsba(isquare
Square
p1791
(dp1792
S'y'
I10
sS'x'
I49
sg65
g66
sg78
g79
sg84
Nsba(isquare
Square
p1793
(dp1794
S'y'
I10
sS'x'
I50
sg65
g66
sg78
g79
sg84
Nsba(isquare
Square
p1795
(dp1796
S'y'
I10
sS'x'
I51
sg65
g66
sg78
g79
sg84
Nsba(isquare
Square
p1797
(dp1798
S'y'
I10
sS'x'
I52
sg65
g66
sg78
g79
sg84
Nsba(isquare
Square
p1799
(dp1800
S'y'
I10
sS'x'
I53
sg65
g66
sg78
g79
sg84
Nsba(isquare
Square
p1801
(dp1802
S'y'
I10
sS'x'
I54
sg65
g66
sg78
g79
sg84
Nsba(isquare
Square
p1803
(dp1804
S'y'
I10
sS'x'
I55
sg65
g66
sg78
g79
sg84
Nsba(isquare
Square
p1805
(dp1806
S'y'
I10
sS'x'
I56
sg65
g66
sg78
g79
sg84
Nsba(isquare
Square
p1807
(dp1808
S'y'
I10
sS'x'
I57
sg65
g66
sg78
g79
sg84
Nsba(isquare
Square
p1809
(dp1810
S'y'
I10
sS'x'
I58
sg65
g66
sg78
g79
sg84
Nsba(isquare
Square
p1811
(dp1812
S'y'
I10
sS'x'
I59
sg65
g66
sg78
g79
sg84
Nsba(isquare
Square
p1813
(dp1814
S'y'
I10
sS'x'
I60
sg65
g66
sg78
g79
sg84
Nsba(isquare
Square
p1815
(dp1816
S'y'
I10
sS'x'
I61
sg65
g66
sg78
g79
sg84
Nsba(isquare
Square
p1817
(dp1818
S'y'
I10
sS'x'
I62
sg65
g66
sg78
g79
sg84
Nsba(isquare
Square
p1819
(dp1820
S'y'
I10
sS'x'
I63
sg65
g66
sg78
g79
sg84
Nsba(isquare
Square
p1821
(dp1822
S'y'
I10
sS'x'
I64
sg65
g66
sg78
g79
sg84
Nsba(isquare
Square
p1823
(dp1824
S'y'
I10
sS'x'
I65
sg65
g66
sg78
g79
sg84
Nsba(isquare
Square
p1825
(dp1826
S'y'
I10
sS'x'
I66
sg65
g66
sg78
g79
sg84
Nsba(isquare
Square
p1827
(dp1828
S'y'
I10
sS'x'
I67
sg65
g66
sg78
g79
sg84
Nsba(isquare
Square
p1829
(dp1830
S'y'
I10
sS'x'
I68
sg65
g66
sg78
g79
sg84
Nsba(isquare
Square
p1831
(dp1832
S'y'
I10
sS'x'
I69
sg65
g66
sg78
g79
sg84
Nsba(isquare
Square
p1833
(dp1834
S'y'
I10
sS'x'
I70
sg65
g66
sg78
g79
sg84
Nsba(isquare
Square
p1835
(dp1836
S'y'
I10
sS'x'
I71
sg65
g66
sg78
g79
sg84
Nsba(isquare
Square
p1837
(dp1838
S'y'
I10
sS'x'
I72
sg65
g66
sg78
g79
sg84
Nsba(isquare
Square
p1839
(dp1840
S'y'
I10
sS'x'
I73
sg65
g66
sg78
g79
sg84
Nsba(isquare
Square
p1841
(dp1842
S'y'
I10
sS'x'
I74
sg65
g66
sg78
g79
sg84
Nsba(isquare
Square
p1843
(dp1844
S'y'
I10
sS'x'
I75
sg65
g66
sg78
g79
sg84
Nsba(isquare
Square
p1845
(dp1846
S'y'
I10
sS'x'
I76
sg65
g66
sg78
g79
sg84
Nsba(isquare
Square
p1847
(dp1848
S'y'
I10
sS'x'
I77
sg65
g66
sg78
g79
sg84
Nsba(isquare
Square
p1849
(dp1850
S'y'
I10
sS'x'
I78
sg65
g66
sg78
g79
sg84
Nsba(isquare
Square
p1851
(dp1852
S'y'
I10
sS'x'
I79
sg65
g66
sg78
g79
sg84
Nsbaa(lp1853
(isquare
Square
p1854
(dp1855
S'y'
I11
sS'x'
I0
sg65
g66
sg78
g79
sg84
Nsba(isquare
Square
p1856
(dp1857
S'y'
I11
sS'x'
I1
sg65
g66
sg78
g79
sg84
Nsba(isquare
Square
p1858
(dp1859
S'y'
I11
sS'x'
I2
sg65
g66
sg78
g79
sg84
Nsba(isquare
Square
p1860
(dp1861
S'y'
I11
sS'x'
I3
sg65
g66
sg78
g79
sg84
Nsba(isquare
Square
p1862
(dp1863
S'y'
I11
sS'x'
I4
sg65
g66
sg78
g79
sg84
Nsba(isquare
Square
p1864
(dp1865
S'y'
I11
sS'x'
I5
sg65
g66
sg78
g79
sg84
Nsba(isquare
Square
p1866
(dp1867
S'y'
I11
sS'x'
I6
sg65
g66
sg78
g79
sg84
Nsba(isquare
Square
p1868
(dp1869
S'y'
I11
sS'x'
I7
sg65
g66
sg78
g79
sg84
Nsba(isquare
Square
p1870
(dp1871
S'y'
I11
sS'x'
I8
sg65
g66
sg78
g79
sg84
Nsba(isquare
Square
p1872
(dp1873
S'y'
I11
sS'x'
I9
sg65
g66
sg78
g79
sg84
Nsba(isquare
Square
p1874
(dp1875
S'y'
I11
sS'x'
I10
sg65
g66
sg78
g79
sg84
Nsba(isquare
Square
p1876
(dp1877
S'y'
I11
sS'x'
I11
sg65
g66
sg78
g79
sg84
Nsba(isquare
Square
p1878
(dp1879
S'y'
I11
sS'x'
I12
sg65
g66
sg78
g79
sg84
Nsba(isquare
Square
p1880
(dp1881
S'y'
I11
sS'x'
I13
sg65
g66
sg78
g79
sg84
Nsba(isquare
Square
p1882
(dp1883
S'y'
I11
sS'x'
I14
sg65
g66
sg78
g79
sg84
Nsba(isquare
Square
p1884
(dp1885
S'y'
I11
sS'x'
I15
sg65
g66
sg78
g79
sg84
Nsba(isquare
Square
p1886
(dp1887
S'y'
I11
sS'x'
I16
sg65
g66
sg78
g79
sg84
Nsba(isquare
Square
p1888
(dp1889
S'y'
I11
sS'x'
I17
sg65
g66
sg78
g79
sg84
Nsba(isquare
Square
p1890
(dp1891
S'y'
I11
sS'x'
I18
sg65
g66
sg78
g79
sg84
Nsba(isquare
Square
p1892
(dp1893
S'y'
I11
sS'x'
I19
sg65
g66
sg78
g79
sg84
Nsba(isquare
Square
p1894
(dp1895
S'y'
I11
sS'x'
I20
sg65
g66
sg78
g79
sg84
Nsba(isquare
Square
p1896
(dp1897
S'y'
I11
sS'x'
I21
sg65
g66
sg78
g79
sg84
Nsba(isquare
Square
p1898
(dp1899
S'y'
I11
sS'x'
I22
sg65
g66
sg78
g79
sg84
Nsba(isquare
Square
p1900
(dp1901
S'y'
I11
sS'x'
I23
sg65
g66
sg78
g79
sg84
Nsba(isquare
Square
p1902
(dp1903
S'y'
I11
sS'x'
I24
sg65
g66
sg78
g79
sg84
Nsba(isquare
Square
p1904
(dp1905
S'y'
I11
sS'x'
I25
sg65
g66
sg78
g79
sg84
Nsba(isquare
Square
p1906
(dp1907
S'y'
I11
sS'x'
I26
sg65
g66
sg78
g79
sg84
Nsba(isquare
Square
p1908
(dp1909
S'y'
I11
sS'x'
I27
sg65
g66
sg78
g79
sg84
Nsba(isquare
Square
p1910
(dp1911
S'y'
I11
sS'x'
I28
sg65
g66
sg78
g79
sg84
Nsba(isquare
Square
p1912
(dp1913
S'y'
I11
sS'x'
I29
sg65
g66
sg78
g79
sg84
Nsba(isquare
Square
p1914
(dp1915
S'y'
I11
sS'x'
I30
sg65
g66
sg78
g79
sg84
Nsba(isquare
Square
p1916
(dp1917
S'y'
I11
sS'x'
I31
sg65
g66
sg78
g79
sg84
Nsba(isquare
Square
p1918
(dp1919
S'y'
I11
sS'x'
I32
sg65
g66
sg78
g79
sg84
Nsba(isquare
Square
p1920
(dp1921
S'y'
I11
sS'x'
I33
sg65
g66
sg78
g79
sg84
Nsba(isquare
Square
p1922
(dp1923
S'y'
I11
sS'x'
I34
sg65
g66
sg78
g79
sg84
Nsba(isquare
Square
p1924
(dp1925
S'y'
I11
sS'x'
I35
sg65
g66
sg78
g79
sg84
Nsba(isquare
Square
p1926
(dp1927
S'y'
I11
sS'x'
I36
sg65
g66
sg78
g79
sg84
Nsba(isquare
Square
p1928
(dp1929
S'y'
I11
sS'x'
I37
sg65
g66
sg78
g79
sg84
Nsba(isquare
Square
p1930
(dp1931
S'y'
I11
sS'x'
I38
sg65
g66
sg78
g79
sg84
Nsba(isquare
Square
p1932
(dp1933
S'y'
I11
sS'x'
I39
sg65
g66
sg78
g79
sg84
Nsba(isquare
Square
p1934
(dp1935
S'y'
I11
sS'x'
I40
sg65
g66
sg78
g79
sg84
Nsba(isquare
Square
p1936
(dp1937
S'y'
I11
sS'x'
I41
sg65
g66
sg78
g79
sg84
Nsba(isquare
Square
p1938
(dp1939
S'y'
I11
sS'x'
I42
sg65
g66
sg78
g79
sg84
Nsba(isquare
Square
p1940
(dp1941
S'y'
I11
sS'x'
I43
sg65
g66
sg78
g79
sg84
Nsba(isquare
Square
p1942
(dp1943
S'y'
I11
sS'x'
I44
sg65
g66
sg78
g79
sg84
Nsba(isquare
Square
p1944
(dp1945
S'y'
I11
sS'x'
I45
sg65
g66
sg78
g79
sg84
Nsba(isquare
Square
p1946
(dp1947
S'y'
I11
sS'x'
I46
sg65
g66
sg78
g79
sg84
Nsba(isquare
Square
p1948
(dp1949
S'y'
I11
sS'x'
I47
sg65
g66
sg78
g79
sg84
Nsba(isquare
Square
p1950
(dp1951
S'y'
I11
sS'x'
I48
sg65
g66
sg78
g79
sg84
Nsba(isquare
Square
p1952
(dp1953
S'y'
I11
sS'x'
I49
sg65
g66
sg78
g79
sg84
Nsba(isquare
Square
p1954
(dp1955
S'y'
I11
sS'x'
I50
sg65
g66
sg78
g79
sg84
Nsba(isquare
Square
p1956
(dp1957
S'y'
I11
sS'x'
I51
sg65
g66
sg78
g79
sg84
Nsba(isquare
Square
p1958
(dp1959
S'y'
I11
sS'x'
I52
sg65
g66
sg78
g79
sg84
Nsba(isquare
Square
p1960
(dp1961
S'y'
I11
sS'x'
I53
sg65
g66
sg78
g79
sg84
Nsba(isquare
Square
p1962
(dp1963
S'y'
I11
sS'x'
I54
sg65
g66
sg78
g79
sg84
Nsba(isquare
Square
p1964
(dp1965
S'y'
I11
sS'x'
I55
sg65
g66
sg78
g79
sg84
Nsba(isquare
Square
p1966
(dp1967
S'y'
I11
sS'x'
I56
sg65
g66
sg78
g79
sg84
Nsba(isquare
Square
p1968
(dp1969
S'y'
I11
sS'x'
I57
sg65
g66
sg78
g79
sg84
Nsba(isquare
Square
p1970
(dp1971
S'y'
I11
sS'x'
I58
sg65
g66
sg78
g79
sg84
Nsba(isquare
Square
p1972
(dp1973
S'y'
I11
sS'x'
I59
sg65
g66
sg78
g79
sg84
Nsba(isquare
Square
p1974
(dp1975
S'y'
I11
sS'x'
I60
sg65
g66
sg78
g79
sg84
Nsba(isquare
Square
p1976
(dp1977
S'y'
I11
sS'x'
I61
sg65
g66
sg78
g79
sg84
Nsba(isquare
Square
p1978
(dp1979
S'y'
I11
sS'x'
I62
sg65
g66
sg78
g79
sg84
Nsba(isquare
Square
p1980
(dp1981
S'y'
I11
sS'x'
I63
sg65
g66
sg78
g79
sg84
Nsba(isquare
Square
p1982
(dp1983
S'y'
I11
sS'x'
I64
sg65
g66
sg78
g79
sg84
Nsba(isquare
Square
p1984
(dp1985
S'y'
I11
sS'x'
I65
sg65
g66
sg78
g79
sg84
Nsba(isquare
Square
p1986
(dp1987
S'y'
I11
sS'x'
I66
sg65
g66
sg78
g79
sg84
Nsba(isquare
Square
p1988
(dp1989
S'y'
I11
sS'x'
I67
sg65
g66
sg78
g79
sg84
Nsba(isquare
Square
p1990
(dp1991
S'y'
I11
sS'x'
I68
sg65
g66
sg78
g79
sg84
Nsba(isquare
Square
p1992
(dp1993
S'y'
I11
sS'x'
I69
sg65
g66
sg78
g79
sg84
Nsba(isquare
Square
p1994
(dp1995
S'y'
I11
sS'x'
I70
sg65
g66
sg78
g79
sg84
Nsba(isquare
Square
p1996
(dp1997
S'y'
I11
sS'x'
I71
sg65
g66
sg78
g79
sg84
Nsba(isquare
Square
p1998
(dp1999
S'y'
I11
sS'x'
I72
sg65
g66
sg78
g79
sg84
Nsba(isquare
Square
p2000
(dp2001
S'y'
I11
sS'x'
I73
sg65
g66
sg78
g79
sg84
Nsba(isquare
Square
p2002
(dp2003
S'y'
I11
sS'x'
I74
sg65
g66
sg78
g79
sg84
Nsba(isquare
Square
p2004
(dp2005
S'y'
I11
sS'x'
I75
sg65
g66
sg78
g79
sg84
Nsba(isquare
Square
p2006
(dp2007
S'y'
I11
sS'x'
I76
sg65
g66
sg78
g79
sg84
Nsba(isquare
Square
p2008
(dp2009
S'y'
I11
sS'x'
I77
sg65
g66
sg78
g79
sg84
Nsba(isquare
Square
p2010
(dp2011
S'y'
I11
sS'x'
I78
sg65
g66
sg78
g79
sg84
Nsba(isquare
Square
p2012
(dp2013
S'y'
I11
sS'x'
I79
sg65
g66
sg78
g79
sg84
Nsbaa(lp2014
(isquare
Square
p2015
(dp2016
S'y'
I12
sS'x'
I0
sg65
g66
sg78
g79
sg84
Nsba(isquare
Square
p2017
(dp2018
S'y'
I12
sS'x'
I1
sg65
g66
sg78
g79
sg84
Nsba(isquare
Square
p2019
(dp2020
S'y'
I12
sS'x'
I2
sg65
g66
sg78
g79
sg84
Nsba(isquare
Square
p2021
(dp2022
S'y'
I12
sS'x'
I3
sg65
g66
sg78
g79
sg84
Nsba(isquare
Square
p2023
(dp2024
S'y'
I12
sS'x'
I4
sg65
g66
sg78
g79
sg84
Nsba(isquare
Square
p2025
(dp2026
S'y'
I12
sS'x'
I5
sg65
g66
sg78
g79
sg84
Nsba(isquare
Square
p2027
(dp2028
S'y'
I12
sS'x'
I6
sg65
g66
sg78
g79
sg84
Nsba(isquare
Square
p2029
(dp2030
S'y'
I12
sS'x'
I7
sg65
g66
sg78
g79
sg84
Nsba(isquare
Square
p2031
(dp2032
S'y'
I12
sS'x'
I8
sg65
g66
sg78
g79
sg84
Nsba(isquare
Square
p2033
(dp2034
S'y'
I12
sS'x'
I9
sg65
g66
sg78
g79
sg84
Nsba(isquare
Square
p2035
(dp2036
S'y'
I12
sS'x'
I10
sg65
g66
sg78
g79
sg84
Nsba(isquare
Square
p2037
(dp2038
S'y'
I12
sS'x'
I11
sg65
g66
sg78
g79
sg84
Nsba(isquare
Square
p2039
(dp2040
S'y'
I12
sS'x'
I12
sg65
g66
sg78
g79
sg84
Nsba(isquare
Square
p2041
(dp2042
S'y'
I12
sS'x'
I13
sg65
g66
sg78
g79
sg84
Nsba(isquare
Square
p2043
(dp2044
S'y'
I12
sS'x'
I14
sg65
g66
sg78
g79
sg84
Nsba(isquare
Square
p2045
(dp2046
S'y'
I12
sS'x'
I15
sg65
g66
sg78
g79
sg84
Nsba(isquare
Square
p2047
(dp2048
S'y'
I12
sS'x'
I16
sg65
g66
sg78
g79
sg84
Nsba(isquare
Square
p2049
(dp2050
S'y'
I12
sS'x'
I17
sg65
g66
sg78
g79
sg84
Nsba(isquare
Square
p2051
(dp2052
S'y'
I12
sS'x'
I18
sg65
g66
sg78
g79
sg84
Nsba(isquare
Square
p2053
(dp2054
S'y'
I12
sS'x'
I19
sg65
g66
sg78
g79
sg84
Nsba(isquare
Square
p2055
(dp2056
S'y'
I12
sS'x'
I20
sg65
g66
sg78
g79
sg84
Nsba(isquare
Square
p2057
(dp2058
S'y'
I12
sS'x'
I21
sg65
g66
sg78
g79
sg84
Nsba(isquare
Square
p2059
(dp2060
S'y'
I12
sS'x'
I22
sg65
g66
sg78
g79
sg84
Nsba(isquare
Square
p2061
(dp2062
S'y'
I12
sS'x'
I23
sg65
g66
sg78
g79
sg84
Nsba(isquare
Square
p2063
(dp2064
S'y'
I12
sS'x'
I24
sg65
g66
sg78
g79
sg84
Nsba(isquare
Square
p2065
(dp2066
S'y'
I12
sS'x'
I25
sg65
g66
sg78
g79
sg84
Nsba(isquare
Square
p2067
(dp2068
S'y'
I12
sS'x'
I26
sg65
g66
sg78
g79
sg84
Nsba(isquare
Square
p2069
(dp2070
S'y'
I12
sS'x'
I27
sg65
g66
sg78
g79
sg84
Nsba(isquare
Square
p2071
(dp2072
S'y'
I12
sS'x'
I28
sg65
g66
sg78
g79
sg84
Nsba(isquare
Square
p2073
(dp2074
S'y'
I12
sS'x'
I29
sg65
g66
sg78
g79
sg84
Nsba(isquare
Square
p2075
(dp2076
S'y'
I12
sS'x'
I30
sg65
g66
sg78
g79
sg84
Nsba(isquare
Square
p2077
(dp2078
S'y'
I12
sS'x'
I31
sg65
g66
sg78
g79
sg84
Nsba(isquare
Square
p2079
(dp2080
S'y'
I12
sS'x'
I32
sg65
g66
sg78
g79
sg84
Nsba(isquare
Square
p2081
(dp2082
S'y'
I12
sS'x'
I33
sg65
g66
sg78
g79
sg84
Nsba(isquare
Square
p2083
(dp2084
S'y'
I12
sS'x'
I34
sg65
g66
sg78
g79
sg84
Nsba(isquare
Square
p2085
(dp2086
S'y'
I12
sS'x'
I35
sg65
g66
sg78
g79
sg84
Nsba(isquare
Square
p2087
(dp2088
S'y'
I12
sS'x'
I36
sg65
g66
sg78
g79
sg84
Nsba(isquare
Square
p2089
(dp2090
S'y'
I12
sS'x'
I37
sg65
g66
sg78
g79
sg84
Nsba(isquare
Square
p2091
(dp2092
S'y'
I12
sS'x'
I38
sg65
g66
sg78
g79
sg84
Nsba(isquare
Square
p2093
(dp2094
S'y'
I12
sS'x'
I39
sg65
g66
sg78
g79
sg84
Nsba(isquare
Square
p2095
(dp2096
S'y'
I12
sS'x'
I40
sg65
g66
sg78
g79
sg84
Nsba(isquare
Square
p2097
(dp2098
S'y'
I12
sS'x'
I41
sg65
g66
sg78
g79
sg84
Nsba(isquare
Square
p2099
(dp2100
S'y'
I12
sS'x'
I42
sg65
g66
sg78
g79
sg84
Nsba(isquare
Square
p2101
(dp2102
S'y'
I12
sS'x'
I43
sg65
g66
sg78
g79
sg84
Nsba(isquare
Square
p2103
(dp2104
S'y'
I12
sS'x'
I44
sg65
g66
sg78
g79
sg84
Nsba(isquare
Square
p2105
(dp2106
S'y'
I12
sS'x'
I45
sg65
g66
sg78
g79
sg84
Nsba(isquare
Square
p2107
(dp2108
S'y'
I12
sS'x'
I46
sg65
g66
sg78
g79
sg84
Nsba(isquare
Square
p2109
(dp2110
S'y'
I12
sS'x'
I47
sg65
g66
sg78
g79
sg84
Nsba(isquare
Square
p2111
(dp2112
S'y'
I12
sS'x'
I48
sg65
g66
sg78
g79
sg84
Nsba(isquare
Square
p2113
(dp2114
S'y'
I12
sS'x'
I49
sg65
g66
sg78
g79
sg84
Nsba(isquare
Square
p2115
(dp2116
S'y'
I12
sS'x'
I50
sg65
g66
sg78
g79
sg84
Nsba(isquare
Square
p2117
(dp2118
S'y'
I12
sS'x'
I51
sg65
g66
sg78
g79
sg84
Nsba(isquare
Square
p2119
(dp2120
S'y'
I12
sS'x'
I52
sg65
g66
sg78
g79
sg84
Nsba(isquare
Square
p2121
(dp2122
S'y'
I12
sS'x'
I53
sg65
g66
sg78
g79
sg84
Nsba(isquare
Square
p2123
(dp2124
S'y'
I12
sS'x'
I54
sg65
g66
sg78
g79
sg84
Nsba(isquare
Square
p2125
(dp2126
S'y'
I12
sS'x'
I55
sg65
g66
sg78
g79
sg84
Nsba(isquare
Square
p2127
(dp2128
S'y'
I12
sS'x'
I56
sg65
g66
sg78
g79
sg84
Nsba(isquare
Square
p2129
(dp2130
S'y'
I12
sS'x'
I57
sg65
g66
sg78
g79
sg84
Nsba(isquare
Square
p2131
(dp2132
S'y'
I12
sS'x'
I58
sg65
g66
sg78
g79
sg84
Nsba(isquare
Square
p2133
(dp2134
S'y'
I12
sS'x'
I59
sg65
g66
sg78
g79
sg84
Nsba(isquare
Square
p2135
(dp2136
S'y'
I12
sS'x'
I60
sg65
g66
sg78
g79
sg84
Nsba(isquare
Square
p2137
(dp2138
S'y'
I12
sS'x'
I61
sg65
g66
sg78
g79
sg84
Nsba(isquare
Square
p2139
(dp2140
S'y'
I12
sS'x'
I62
sg65
g66
sg78
g79
sg84
Nsba(isquare
Square
p2141
(dp2142
S'y'
I12
sS'x'
I63
sg65
g66
sg78
g79
sg84
Nsba(isquare
Square
p2143
(dp2144
S'y'
I12
sS'x'
I64
sg65
g66
sg78
g79
sg84
Nsba(isquare
Square
p2145
(dp2146
S'y'
I12
sS'x'
I65
sg65
g66
sg78
g79
sg84
Nsba(isquare
Square
p2147
(dp2148
S'y'
I12
sS'x'
I66
sg65
g66
sg78
g79
sg84
Nsba(isquare
Square
p2149
(dp2150
S'y'
I12
sS'x'
I67
sg65
g66
sg78
g79
sg84
Nsba(isquare
Square
p2151
(dp2152
S'y'
I12
sS'x'
I68
sg65
g66
sg78
g79
sg84
Nsba(isquare
Square
p2153
(dp2154
S'y'
I12
sS'x'
I69
sg65
g66
sg78
g79
sg84
Nsba(isquare
Square
p2155
(dp2156
S'y'
I12
sS'x'
I70
sg65
g66
sg78
g79
sg84
Nsba(isquare
Square
p2157
(dp2158
S'y'
I12
sS'x'
I71
sg65
g66
sg78
g79
sg84
Nsba(isquare
Square
p2159
(dp2160
S'y'
I12
sS'x'
I72
sg65
g66
sg78
g79
sg84
Nsba(isquare
Square
p2161
(dp2162
S'y'
I12
sS'x'
I73
sg65
g66
sg78
g79
sg84
Nsba(isquare
Square
p2163
(dp2164
S'y'
I12
sS'x'
I74
sg65
g66
sg78
g79
sg84
Nsba(isquare
Square
p2165
(dp2166
S'y'
I12
sS'x'
I75
sg65
g66
sg78
g79
sg84
Nsba(isquare
Square
p2167
(dp2168
S'y'
I12
sS'x'
I76
sg65
g66
sg78
g79
sg84
Nsba(isquare
Square
p2169
(dp2170
S'y'
I12
sS'x'
I77
sg65
g66
sg78
g79
sg84
Nsba(isquare
Square
p2171
(dp2172
S'y'
I12
sS'x'
I78
sg65
g66
sg78
g79
sg84
Nsba(isquare
Square
p2173
(dp2174
S'y'
I12
sS'x'
I79
sg65
g66
sg78
g79
sg84
Nsbaa(lp2175
(isquare
Square
p2176
(dp2177
S'y'
I13
sS'x'
I0
sg65
g66
sg78
g79
sg84
Nsba(isquare
Square
p2178
(dp2179
S'y'
I13
sS'x'
I1
sg65
g66
sg78
g79
sg84
Nsba(isquare
Square
p2180
(dp2181
S'y'
I13
sS'x'
I2
sg65
g66
sg78
g79
sg84
Nsba(isquare
Square
p2182
(dp2183
S'y'
I13
sS'x'
I3
sg65
g66
sg78
g79
sg84
Nsba(isquare
Square
p2184
(dp2185
S'y'
I13
sS'x'
I4
sg65
g66
sg78
g79
sg84
Nsba(isquare
Square
p2186
(dp2187
S'y'
I13
sS'x'
I5
sg65
g66
sg78
g79
sg84
Nsba(isquare
Square
p2188
(dp2189
S'y'
I13
sS'x'
I6
sg65
g66
sg78
g79
sg84
Nsba(isquare
Square
p2190
(dp2191
S'y'
I13
sS'x'
I7
sg65
g66
sg78
g79
sg84
Nsba(isquare
Square
p2192
(dp2193
S'y'
I13
sS'x'
I8
sg65
g66
sg78
g79
sg84
Nsba(isquare
Square
p2194
(dp2195
S'y'
I13
sS'x'
I9
sg65
g66
sg78
g79
sg84
Nsba(isquare
Square
p2196
(dp2197
S'y'
I13
sS'x'
I10
sg65
g66
sg78
g79
sg84
Nsba(isquare
Square
p2198
(dp2199
S'y'
I13
sS'x'
I11
sg65
g66
sg78
g79
sg84
Nsba(isquare
Square
p2200
(dp2201
S'y'
I13
sS'x'
I12
sg65
g66
sg78
g79
sg84
Nsba(isquare
Square
p2202
(dp2203
S'y'
I13
sS'x'
I13
sg65
g66
sg78
g79
sg84
Nsba(isquare
Square
p2204
(dp2205
S'y'
I13
sS'x'
I14
sg65
g66
sg78
g79
sg84
Nsba(isquare
Square
p2206
(dp2207
S'y'
I13
sS'x'
I15
sg65
g66
sg78
g79
sg84
Nsba(isquare
Square
p2208
(dp2209
S'y'
I13
sS'x'
I16
sg65
g66
sg78
g79
sg84
Nsba(isquare
Square
p2210
(dp2211
S'y'
I13
sS'x'
I17
sg65
g66
sg78
g79
sg84
Nsba(isquare
Square
p2212
(dp2213
S'y'
I13
sS'x'
I18
sg65
g66
sg78
g79
sg84
Nsba(isquare
Square
p2214
(dp2215
S'y'
I13
sS'x'
I19
sg65
g66
sg78
g79
sg84
Nsba(isquare
Square
p2216
(dp2217
S'y'
I13
sS'x'
I20
sg65
g66
sg78
g79
sg84
Nsba(isquare
Square
p2218
(dp2219
S'y'
I13
sS'x'
I21
sg65
g66
sg78
g79
sg84
Nsba(isquare
Square
p2220
(dp2221
S'y'
I13
sS'x'
I22
sg65
g66
sg78
g79
sg84
Nsba(isquare
Square
p2222
(dp2223
S'y'
I13
sS'x'
I23
sg65
g66
sg78
g79
sg84
Nsba(isquare
Square
p2224
(dp2225
S'y'
I13
sS'x'
I24
sg65
g66
sg78
g79
sg84
Nsba(isquare
Square
p2226
(dp2227
S'y'
I13
sS'x'
I25
sg65
g66
sg78
g79
sg84
Nsba(isquare
Square
p2228
(dp2229
S'y'
I13
sS'x'
I26
sg65
g66
sg78
g79
sg84
Nsba(isquare
Square
p2230
(dp2231
S'y'
I13
sS'x'
I27
sg65
g66
sg78
g79
sg84
Nsba(isquare
Square
p2232
(dp2233
S'y'
I13
sS'x'
I28
sg65
g66
sg78
g79
sg84
Nsba(isquare
Square
p2234
(dp2235
S'y'
I13
sS'x'
I29
sg65
g66
sg78
g79
sg84
Nsba(isquare
Square
p2236
(dp2237
S'y'
I13
sS'x'
I30
sg65
g66
sg78
g79
sg84
Nsba(isquare
Square
p2238
(dp2239
S'y'
I13
sS'x'
I31
sg65
g66
sg78
g79
sg84
Nsba(isquare
Square
p2240
(dp2241
S'y'
I13
sS'x'
I32
sg65
g66
sg78
g79
sg84
Nsba(isquare
Square
p2242
(dp2243
S'y'
I13
sS'x'
I33
sg65
g66
sg78
g79
sg84
Nsba(isquare
Square
p2244
(dp2245
S'y'
I13
sS'x'
I34
sg65
g66
sg78
g79
sg84
Nsba(isquare
Square
p2246
(dp2247
S'y'
I13
sS'x'
I35
sg65
g66
sg78
g79
sg84
Nsba(isquare
Square
p2248
(dp2249
S'y'
I13
sS'x'
I36
sg65
g66
sg78
g79
sg84
Nsba(isquare
Square
p2250
(dp2251
S'y'
I13
sS'x'
I37
sg65
g66
sg78
g79
sg84
Nsba(isquare
Square
p2252
(dp2253
S'y'
I13
sS'x'
I38
sg65
g66
sg78
g79
sg84
Nsba(isquare
Square
p2254
(dp2255
S'y'
I13
sS'x'
I39
sg65
g66
sg78
g79
sg84
Nsba(isquare
Square
p2256
(dp2257
S'y'
I13
sS'x'
I40
sg65
g66
sg78
g79
sg84
Nsba(isquare
Square
p2258
(dp2259
S'y'
I13
sS'x'
I41
sg65
g66
sg78
g79
sg84
Nsba(isquare
Square
p2260
(dp2261
S'y'
I13
sS'x'
I42
sg65
g66
sg78
g79
sg84
Nsba(isquare
Square
p2262
(dp2263
S'y'
I13
sS'x'
I43
sg65
g66
sg78
g79
sg84
Nsba(isquare
Square
p2264
(dp2265
S'y'
I13
sS'x'
I44
sg65
g66
sg78
g79
sg84
Nsba(isquare
Square
p2266
(dp2267
S'y'
I13
sS'x'
I45
sg65
g66
sg78
g79
sg84
Nsba(isquare
Square
p2268
(dp2269
S'y'
I13
sS'x'
I46
sg65
g66
sg78
g79
sg84
Nsba(isquare
Square
p2270
(dp2271
S'y'
I13
sS'x'
I47
sg65
g66
sg78
g79
sg84
Nsba(isquare
Square
p2272
(dp2273
S'y'
I13
sS'x'
I48
sg65
g66
sg78
g79
sg84
Nsba(isquare
Square
p2274
(dp2275
S'y'
I13
sS'x'
I49
sg65
g66
sg78
g79
sg84
Nsba(isquare
Square
p2276
(dp2277
S'y'
I13
sS'x'
I50
sg65
g66
sg78
g79
sg84
Nsba(isquare
Square
p2278
(dp2279
S'y'
I13
sS'x'
I51
sg65
g66
sg78
g79
sg84
Nsba(isquare
Square
p2280
(dp2281
S'y'
I13
sS'x'
I52
sg65
g66
sg78
g79
sg84
Nsba(isquare
Square
p2282
(dp2283
S'y'
I13
sS'x'
I53
sg65
g66
sg78
g79
sg84
Nsba(isquare
Square
p2284
(dp2285
S'y'
I13
sS'x'
I54
sg65
g66
sg78
g79
sg84
Nsba(isquare
Square
p2286
(dp2287
S'y'
I13
sS'x'
I55
sg65
g66
sg78
g79
sg84
Nsba(isquare
Square
p2288
(dp2289
S'y'
I13
sS'x'
I56
sg65
g66
sg78
g79
sg84
Nsba(isquare
Square
p2290
(dp2291
S'y'
I13
sS'x'
I57
sg65
g66
sg78
g79
sg84
Nsba(isquare
Square
p2292
(dp2293
S'y'
I13
sS'x'
I58
sg65
g66
sg78
g79
sg84
Nsba(isquare
Square
p2294
(dp2295
S'y'
I13
sS'x'
I59
sg65
g66
sg78
g79
sg84
Nsba(isquare
Square
p2296
(dp2297
S'y'
I13
sS'x'
I60
sg65
g66
sg78
g79
sg84
Nsba(isquare
Square
p2298
(dp2299
S'y'
I13
sS'x'
I61
sg65
g66
sg78
g79
sg84
Nsba(isquare
Square
p2300
(dp2301
S'y'
I13
sS'x'
I62
sg65
g66
sg78
g79
sg84
Nsba(isquare
Square
p2302
(dp2303
S'y'
I13
sS'x'
I63
sg65
g66
sg78
g79
sg84
Nsba(isquare
Square
p2304
(dp2305
S'y'
I13
sS'x'
I64
sg65
g66
sg78
g79
sg84
Nsba(isquare
Square
p2306
(dp2307
S'y'
I13
sS'x'
I65
sg65
g66
sg78
g79
sg84
Nsba(isquare
Square
p2308
(dp2309
S'y'
I13
sS'x'
I66
sg65
g66
sg78
g79
sg84
Nsba(isquare
Square
p2310
(dp2311
S'y'
I13
sS'x'
I67
sg65
g66
sg78
g79
sg84
Nsba(isquare
Square
p2312
(dp2313
S'y'
I13
sS'x'
I68
sg65
g66
sg78
g79
sg84
Nsba(isquare
Square
p2314
(dp2315
S'y'
I13
sS'x'
I69
sg65
g66
sg78
g79
sg84
Nsba(isquare
Square
p2316
(dp2317
S'y'
I13
sS'x'
I70
sg65
g66
sg78
g79
sg84
Nsba(isquare
Square
p2318
(dp2319
S'y'
I13
sS'x'
I71
sg65
g66
sg78
g79
sg84
Nsba(isquare
Square
p2320
(dp2321
S'y'
I13
sS'x'
I72
sg65
g66
sg78
g79
sg84
Nsba(isquare
Square
p2322
(dp2323
S'y'
I13
sS'x'
I73
sg65
g66
sg78
g79
sg84
Nsba(isquare
Square
p2324
(dp2325
S'y'
I13
sS'x'
I74
sg65
g66
sg78
g79
sg84
Nsba(isquare
Square
p2326
(dp2327
S'y'
I13
sS'x'
I75
sg65
g66
sg78
g79
sg84
Nsba(isquare
Square
p2328
(dp2329
S'y'
I13
sS'x'
I76
sg65
g66
sg78
g79
sg84
Nsba(isquare
Square
p2330
(dp2331
S'y'
I13
sS'x'
I77
sg65
g66
sg78
g79
sg84
Nsba(isquare
Square
p2332
(dp2333
S'y'
I13
sS'x'
I78
sg65
g66
sg78
g79
sg84
Nsba(isquare
Square
p2334
(dp2335
S'y'
I13
sS'x'
I79
sg65
g66
sg78
g79
sg84
Nsbaa(lp2336
(isquare
Square
p2337
(dp2338
S'y'
I14
sS'x'
I0
sg65
g66
sg78
g79
sg84
Nsba(isquare
Square
p2339
(dp2340
S'y'
I14
sS'x'
I1
sg65
g66
sg78
g79
sg84
Nsba(isquare
Square
p2341
(dp2342
S'y'
I14
sS'x'
I2
sg65
g66
sg78
g79
sg84
Nsba(isquare
Square
p2343
(dp2344
S'y'
I14
sS'x'
I3
sg65
g66
sg78
g79
sg84
Nsba(isquare
Square
p2345
(dp2346
S'y'
I14
sS'x'
I4
sg65
g66
sg78
g79
sg84
Nsba(isquare
Square
p2347
(dp2348
S'y'
I14
sS'x'
I5
sg65
g66
sg78
g79
sg84
Nsba(isquare
Square
p2349
(dp2350
S'y'
I14
sS'x'
I6
sg65
g66
sg78
g79
sg84
Nsba(isquare
Square
p2351
(dp2352
S'y'
I14
sS'x'
I7
sg65
g66
sg78
g79
sg84
Nsba(isquare
Square
p2353
(dp2354
S'y'
I14
sS'x'
I8
sg65
g66
sg78
g79
sg84
Nsba(isquare
Square
p2355
(dp2356
S'y'
I14
sS'x'
I9
sg65
g66
sg78
g79
sg84
Nsba(isquare
Square
p2357
(dp2358
S'y'
I14
sS'x'
I10
sg65
g66
sg78
g79
sg84
Nsba(isquare
Square
p2359
(dp2360
S'y'
I14
sS'x'
I11
sg65
g66
sg78
g79
sg84
Nsba(isquare
Square
p2361
(dp2362
S'y'
I14
sS'x'
I12
sg65
g66
sg78
g79
sg84
Nsba(isquare
Square
p2363
(dp2364
S'y'
I14
sS'x'
I13
sg65
g66
sg78
g79
sg84
Nsba(isquare
Square
p2365
(dp2366
S'y'
I14
sS'x'
I14
sg65
g66
sg78
g79
sg84
Nsba(isquare
Square
p2367
(dp2368
S'y'
I14
sS'x'
I15
sg65
g66
sg78
g79
sg84
Nsba(isquare
Square
p2369
(dp2370
S'y'
I14
sS'x'
I16
sg65
g66
sg78
g79
sg84
Nsba(isquare
Square
p2371
(dp2372
S'y'
I14
sS'x'
I17
sg65
g66
sg78
g79
sg84
Nsba(isquare
Square
p2373
(dp2374
S'y'
I14
sS'x'
I18
sg65
g66
sg78
g79
sg84
Nsba(isquare
Square
p2375
(dp2376
S'y'
I14
sS'x'
I19
sg65
g66
sg78
g79
sg84
Nsba(isquare
Square
p2377
(dp2378
S'y'
I14
sS'x'
I20
sg65
g66
sg78
g79
sg84
Nsba(isquare
Square
p2379
(dp2380
S'y'
I14
sS'x'
I21
sg65
g66
sg78
g79
sg84
Nsba(isquare
Square
p2381
(dp2382
S'y'
I14
sS'x'
I22
sg65
g66
sg78
g79
sg84
Nsba(isquare
Square
p2383
(dp2384
S'y'
I14
sS'x'
I23
sg65
g66
sg78
g79
sg84
Nsba(isquare
Square
p2385
(dp2386
S'y'
I14
sS'x'
I24
sg65
g66
sg78
g79
sg84
Nsba(isquare
Square
p2387
(dp2388
S'y'
I14
sS'x'
I25
sg65
g66
sg78
g79
sg84
Nsba(isquare
Square
p2389
(dp2390
S'y'
I14
sS'x'
I26
sg65
g66
sg78
g79
sg84
Nsba(isquare
Square
p2391
(dp2392
S'y'
I14
sS'x'
I27
sg65
g66
sg78
g79
sg84
Nsba(isquare
Square
p2393
(dp2394
S'y'
I14
sS'x'
I28
sg65
g66
sg78
g79
sg84
Nsba(isquare
Square
p2395
(dp2396
S'y'
I14
sS'x'
I29
sg65
g66
sg78
g79
sg84
Nsba(isquare
Square
p2397
(dp2398
S'y'
I14
sS'x'
I30
sg65
g66
sg78
g79
sg84
Nsba(isquare
Square
p2399
(dp2400
S'y'
I14
sS'x'
I31
sg65
g66
sg78
g79
sg84
Nsba(isquare
Square
p2401
(dp2402
S'y'
I14
sS'x'
I32
sg65
g66
sg78
g79
sg84
Nsba(isquare
Square
p2403
(dp2404
S'y'
I14
sS'x'
I33
sg65
g66
sg78
g79
sg84
Nsba(isquare
Square
p2405
(dp2406
S'y'
I14
sS'x'
I34
sg65
g66
sg78
g79
sg84
Nsba(isquare
Square
p2407
(dp2408
S'y'
I14
sS'x'
I35
sg65
g66
sg78
g79
sg84
Nsba(isquare
Square
p2409
(dp2410
S'y'
I14
sS'x'
I36
sg65
g66
sg78
g79
sg84
Nsba(isquare
Square
p2411
(dp2412
S'y'
I14
sS'x'
I37
sg65
g66
sg78
g79
sg84
Nsba(isquare
Square
p2413
(dp2414
S'y'
I14
sS'x'
I38
sg65
g66
sg78
g79
sg84
Nsba(isquare
Square
p2415
(dp2416
S'y'
I14
sS'x'
I39
sg65
g66
sg78
g79
sg84
Nsba(isquare
Square
p2417
(dp2418
S'y'
I14
sS'x'
I40
sg65
g66
sg78
g79
sg84
Nsba(isquare
Square
p2419
(dp2420
S'y'
I14
sS'x'
I41
sg65
g66
sg78
g79
sg84
Nsba(isquare
Square
p2421
(dp2422
S'y'
I14
sS'x'
I42
sg65
g66
sg78
g79
sg84
Nsba(isquare
Square
p2423
(dp2424
S'y'
I14
sS'x'
I43
sg65
g66
sg78
g79
sg84
Nsba(isquare
Square
p2425
(dp2426
S'y'
I14
sS'x'
I44
sg65
g66
sg78
g79
sg84
Nsba(isquare
Square
p2427
(dp2428
S'y'
I14
sS'x'
I45
sg65
g66
sg78
g79
sg84
Nsba(isquare
Square
p2429
(dp2430
S'y'
I14
sS'x'
I46
sg65
g66
sg78
g79
sg84
Nsba(isquare
Square
p2431
(dp2432
S'y'
I14
sS'x'
I47
sg65
g66
sg78
g79
sg84
Nsba(isquare
Square
p2433
(dp2434
S'y'
I14
sS'x'
I48
sg65
g66
sg78
g79
sg84
Nsba(isquare
Square
p2435
(dp2436
S'y'
I14
sS'x'
I49
sg65
g66
sg78
g79
sg84
Nsba(isquare
Square
p2437
(dp2438
S'y'
I14
sS'x'
I50
sg65
g66
sg78
g79
sg84
Nsba(isquare
Square
p2439
(dp2440
S'y'
I14
sS'x'
I51
sg65
g66
sg78
g79
sg84
Nsba(isquare
Square
p2441
(dp2442
S'y'
I14
sS'x'
I52
sg65
g66
sg78
g79
sg84
Nsba(isquare
Square
p2443
(dp2444
S'y'
I14
sS'x'
I53
sg65
g66
sg78
g79
sg84
Nsba(isquare
Square
p2445
(dp2446
S'y'
I14
sS'x'
I54
sg65
g66
sg78
g79
sg84
Nsba(isquare
Square
p2447
(dp2448
S'y'
I14
sS'x'
I55
sg65
g66
sg78
g79
sg84
Nsba(isquare
Square
p2449
(dp2450
S'y'
I14
sS'x'
I56
sg65
g66
sg78
g79
sg84
Nsba(isquare
Square
p2451
(dp2452
S'y'
I14
sS'x'
I57
sg65
g66
sg78
g79
sg84
Nsba(isquare
Square
p2453
(dp2454
S'y'
I14
sS'x'
I58
sg65
g66
sg78
g79
sg84
Nsba(isquare
Square
p2455
(dp2456
S'y'
I14
sS'x'
I59
sg65
g66
sg78
g79
sg84
Nsba(isquare
Square
p2457
(dp2458
S'y'
I14
sS'x'
I60
sg65
g66
sg78
g79
sg84
Nsba(isquare
Square
p2459
(dp2460
S'y'
I14
sS'x'
I61
sg65
g66
sg78
g79
sg84
Nsba(isquare
Square
p2461
(dp2462
S'y'
I14
sS'x'
I62
sg65
g66
sg78
g79
sg84
Nsba(isquare
Square
p2463
(dp2464
S'y'
I14
sS'x'
I63
sg65
g66
sg78
g79
sg84
Nsba(isquare
Square
p2465
(dp2466
S'y'
I14
sS'x'
I64
sg65
g66
sg78
g79
sg84
Nsba(isquare
Square
p2467
(dp2468
S'y'
I14
sS'x'
I65
sg65
g66
sg78
g79
sg84
Nsba(isquare
Square
p2469
(dp2470
S'y'
I14
sS'x'
I66
sg65
g66
sg78
g79
sg84
Nsba(isquare
Square
p2471
(dp2472
S'y'
I14
sS'x'
I67
sg65
g66
sg78
g79
sg84
Nsba(isquare
Square
p2473
(dp2474
S'y'
I14
sS'x'
I68
sg65
g66
sg78
g79
sg84
Nsba(isquare
Square
p2475
(dp2476
S'y'
I14
sS'x'
I69
sg65
g66
sg78
g79
sg84
Nsba(isquare
Square
p2477
(dp2478
S'y'
I14
sS'x'
I70
sg65
g66
sg78
g79
sg84
Nsba(isquare
Square
p2479
(dp2480
S'y'
I14
sS'x'
I71
sg65
g66
sg78
g79
sg84
Nsba(isquare
Square
p2481
(dp2482
S'y'
I14
sS'x'
I72
sg65
g66
sg78
g79
sg84
Nsba(isquare
Square
p2483
(dp2484
S'y'
I14
sS'x'
I73
sg65
g66
sg78
g79
sg84
Nsba(isquare
Square
p2485
(dp2486
S'y'
I14
sS'x'
I74
sg65
g66
sg78
g79
sg84
Nsba(isquare
Square
p2487
(dp2488
S'y'
I14
sS'x'
I75
sg65
g66
sg78
g79
sg84
Nsba(isquare
Square
p2489
(dp2490
S'y'
I14
sS'x'
I76
sg65
g66
sg78
g79
sg84
Nsba(isquare
Square
p2491
(dp2492
S'y'
I14
sS'x'
I77
sg65
g66
sg78
g79
sg84
Nsba(isquare
Square
p2493
(dp2494
S'y'
I14
sS'x'
I78
sg65
g66
sg78
g79
sg84
Nsba(isquare
Square
p2495
(dp2496
S'y'
I14
sS'x'
I79
sg65
g66
sg78
g79
sg84
Nsbaa(lp2497
(isquare
Square
p2498
(dp2499
S'y'
I15
sS'x'
I0
sg65
g66
sg78
g79
sg84
Nsba(isquare
Square
p2500
(dp2501
S'y'
I15
sS'x'
I1
sg65
g66
sg78
g79
sg84
Nsba(isquare
Square
p2502
(dp2503
S'y'
I15
sS'x'
I2
sg65
g66
sg78
g79
sg84
Nsba(isquare
Square
p2504
(dp2505
S'y'
I15
sS'x'
I3
sg65
g66
sg78
g79
sg84
Nsba(isquare
Square
p2506
(dp2507
S'y'
I15
sS'x'
I4
sg65
g66
sg78
g79
sg84
Nsba(isquare
Square
p2508
(dp2509
S'y'
I15
sS'x'
I5
sg65
g66
sg78
g79
sg84
Nsba(isquare
Square
p2510
(dp2511
S'y'
I15
sS'x'
I6
sg65
g66
sg78
g79
sg84
Nsba(isquare
Square
p2512
(dp2513
S'y'
I15
sS'x'
I7
sg65
g66
sg78
g79
sg84
Nsba(isquare
Square
p2514
(dp2515
S'y'
I15
sS'x'
I8
sg65
g66
sg78
g79
sg84
Nsba(isquare
Square
p2516
(dp2517
S'y'
I15
sS'x'
I9
sg65
g66
sg78
g79
sg84
Nsba(isquare
Square
p2518
(dp2519
S'y'
I15
sS'x'
I10
sg65
g66
sg78
g79
sg84
Nsba(isquare
Square
p2520
(dp2521
S'y'
I15
sS'x'
I11
sg65
g66
sg78
g79
sg84
Nsba(isquare
Square
p2522
(dp2523
S'y'
I15
sS'x'
I12
sg65
g66
sg78
g79
sg84
Nsba(isquare
Square
p2524
(dp2525
S'y'
I15
sS'x'
I13
sg65
g66
sg78
g79
sg84
Nsba(isquare
Square
p2526
(dp2527
S'y'
I15
sS'x'
I14
sg65
g66
sg78
g79
sg84
Nsba(isquare
Square
p2528
(dp2529
S'y'
I15
sS'x'
I15
sg65
g66
sg78
g79
sg84
Nsba(isquare
Square
p2530
(dp2531
S'y'
I15
sS'x'
I16
sg65
g66
sg78
g79
sg84
Nsba(isquare
Square
p2532
(dp2533
S'y'
I15
sS'x'
I17
sg65
g66
sg78
g79
sg84
Nsba(isquare
Square
p2534
(dp2535
S'y'
I15
sS'x'
I18
sg65
g66
sg78
g79
sg84
Nsba(isquare
Square
p2536
(dp2537
S'y'
I15
sS'x'
I19
sg65
g66
sg78
g79
sg84
Nsba(isquare
Square
p2538
(dp2539
S'y'
I15
sS'x'
I20
sg65
g66
sg78
g79
sg84
Nsba(isquare
Square
p2540
(dp2541
S'y'
I15
sS'x'
I21
sg65
g66
sg78
g79
sg84
Nsba(isquare
Square
p2542
(dp2543
S'y'
I15
sS'x'
I22
sg65
g66
sg78
g79
sg84
Nsba(isquare
Square
p2544
(dp2545
S'y'
I15
sS'x'
I23
sg65
g66
sg78
g79
sg84
Nsba(isquare
Square
p2546
(dp2547
S'y'
I15
sS'x'
I24
sg65
g66
sg78
g79
sg84
Nsba(isquare
Square
p2548
(dp2549
S'y'
I15
sS'x'
I25
sg65
g66
sg78
g79
sg84
Nsba(isquare
Square
p2550
(dp2551
S'y'
I15
sS'x'
I26
sg65
g66
sg78
g79
sg84
Nsba(isquare
Square
p2552
(dp2553
S'y'
I15
sS'x'
I27
sg65
g66
sg78
g79
sg84
Nsba(isquare
Square
p2554
(dp2555
S'y'
I15
sS'x'
I28
sg65
g66
sg78
g79
sg84
Nsba(isquare
Square
p2556
(dp2557
S'y'
I15
sS'x'
I29
sg65
g66
sg78
g79
sg84
Nsba(isquare
Square
p2558
(dp2559
S'y'
I15
sS'x'
I30
sg65
g66
sg78
g79
sg84
Nsba(isquare
Square
p2560
(dp2561
S'y'
I15
sS'x'
I31
sg65
g66
sg78
g79
sg84
Nsba(isquare
Square
p2562
(dp2563
S'y'
I15
sS'x'
I32
sg65
g66
sg78
g79
sg84
Nsba(isquare
Square
p2564
(dp2565
S'y'
I15
sS'x'
I33
sg65
g66
sg78
g79
sg84
Nsba(isquare
Square
p2566
(dp2567
S'y'
I15
sS'x'
I34
sg65
g66
sg78
g79
sg84
Nsba(isquare
Square
p2568
(dp2569
S'y'
I15
sS'x'
I35
sg65
g66
sg78
g79
sg84
Nsba(isquare
Square
p2570
(dp2571
S'y'
I15
sS'x'
I36
sg65
g66
sg78
g79
sg84
Nsba(isquare
Square
p2572
(dp2573
S'y'
I15
sS'x'
I37
sg65
g66
sg78
g79
sg84
Nsba(isquare
Square
p2574
(dp2575
S'y'
I15
sS'x'
I38
sg65
g66
sg78
g79
sg84
Nsba(isquare
Square
p2576
(dp2577
S'y'
I15
sS'x'
I39
sg65
g66
sg78
g79
sg84
Nsba(isquare
Square
p2578
(dp2579
S'y'
I15
sS'x'
I40
sg65
g66
sg78
g79
sg84
Nsba(isquare
Square
p2580
(dp2581
S'y'
I15
sS'x'
I41
sg65
g66
sg78
g79
sg84
Nsba(isquare
Square
p2582
(dp2583
S'y'
I15
sS'x'
I42
sg65
g66
sg78
g79
sg84
Nsba(isquare
Square
p2584
(dp2585
S'y'
I15
sS'x'
I43
sg65
g66
sg78
g79
sg84
Nsba(isquare
Square
p2586
(dp2587
S'y'
I15
sS'x'
I44
sg65
g66
sg78
g79
sg84
Nsba(isquare
Square
p2588
(dp2589
S'y'
I15
sS'x'
I45
sg65
g66
sg78
g79
sg84
Nsba(isquare
Square
p2590
(dp2591
S'y'
I15
sS'x'
I46
sg65
g66
sg78
g79
sg84
Nsba(isquare
Square
p2592
(dp2593
S'y'
I15
sS'x'
I47
sg65
g66
sg78
g79
sg84
Nsba(isquare
Square
p2594
(dp2595
S'y'
I15
sS'x'
I48
sg65
g66
sg78
g79
sg84
Nsba(isquare
Square
p2596
(dp2597
S'y'
I15
sS'x'
I49
sg65
g66
sg78
g79
sg84
Nsba(isquare
Square
p2598
(dp2599
S'y'
I15
sS'x'
I50
sg65
g66
sg78
g79
sg84
Nsba(isquare
Square
p2600
(dp2601
S'y'
I15
sS'x'
I51
sg65
g66
sg78
g79
sg84
Nsba(isquare
Square
p2602
(dp2603
S'y'
I15
sS'x'
I52
sg65
g66
sg78
g79
sg84
Nsba(isquare
Square
p2604
(dp2605
S'y'
I15
sS'x'
I53
sg65
g66
sg78
g79
sg84
Nsba(isquare
Square
p2606
(dp2607
S'y'
I15
sS'x'
I54
sg65
g66
sg78
g79
sg84
Nsba(isquare
Square
p2608
(dp2609
S'y'
I15
sS'x'
I55
sg65
g66
sg78
g79
sg84
Nsba(isquare
Square
p2610
(dp2611
S'y'
I15
sS'x'
I56
sg65
g66
sg78
g79
sg84
Nsba(isquare
Square
p2612
(dp2613
S'y'
I15
sS'x'
I57
sg65
g66
sg78
g79
sg84
Nsba(isquare
Square
p2614
(dp2615
S'y'
I15
sS'x'
I58
sg65
g66
sg78
g79
sg84
Nsba(isquare
Square
p2616
(dp2617
S'y'
I15
sS'x'
I59
sg65
g66
sg78
g79
sg84
Nsba(isquare
Square
p2618
(dp2619
S'y'
I15
sS'x'
I60
sg65
g66
sg78
g79
sg84
Nsba(isquare
Square
p2620
(dp2621
S'y'
I15
sS'x'
I61
sg65
g66
sg78
g79
sg84
Nsba(isquare
Square
p2622
(dp2623
S'y'
I15
sS'x'
I62
sg65
g66
sg78
g79
sg84
Nsba(isquare
Square
p2624
(dp2625
S'y'
I15
sS'x'
I63
sg65
g66
sg78
g79
sg84
Nsba(isquare
Square
p2626
(dp2627
S'y'
I15
sS'x'
I64
sg65
g66
sg78
g79
sg84
Nsba(isquare
Square
p2628
(dp2629
S'y'
I15
sS'x'
I65
sg65
g66
sg78
g79
sg84
Nsba(isquare
Square
p2630
(dp2631
S'y'
I15
sS'x'
I66
sg65
g66
sg78
g79
sg84
Nsba(isquare
Square
p2632
(dp2633
S'y'
I15
sS'x'
I67
sg65
g66
sg78
g79
sg84
Nsba(isquare
Square
p2634
(dp2635
S'y'
I15
sS'x'
I68
sg65
g66
sg78
g79
sg84
Nsba(isquare
Square
p2636
(dp2637
S'y'
I15
sS'x'
I69
sg65
g66
sg78
g79
sg84
Nsba(isquare
Square
p2638
(dp2639
S'y'
I15
sS'x'
I70
sg65
g66
sg78
g79
sg84
Nsba(isquare
Square
p2640
(dp2641
S'y'
I15
sS'x'
I71
sg65
g66
sg78
g79
sg84
Nsba(isquare
Square
p2642
(dp2643
S'y'
I15
sS'x'
I72
sg65
g66
sg78
g79
sg84
Nsba(isquare
Square
p2644
(dp2645
S'y'
I15
sS'x'
I73
sg65
g66
sg78
g79
sg84
Nsba(isquare
Square
p2646
(dp2647
S'y'
I15
sS'x'
I74
sg65
g66
sg78
g79
sg84
Nsba(isquare
Square
p2648
(dp2649
S'y'
I15
sS'x'
I75
sg65
g66
sg78
g79
sg84
Nsba(isquare
Square
p2650
(dp2651
S'y'
I15
sS'x'
I76
sg65
g66
sg78
g79
sg84
Nsba(isquare
Square
p2652
(dp2653
S'y'
I15
sS'x'
I77
sg65
g66
sg78
g79
sg84
Nsba(isquare
Square
p2654
(dp2655
S'y'
I15
sS'x'
I78
sg65
g66
sg78
g79
sg84
Nsba(isquare
Square
p2656
(dp2657
S'y'
I15
sS'x'
I79
sg65
g66
sg78
g79
sg84
Nsbaa(lp2658
(isquare
Square
p2659
(dp2660
S'y'
I16
sS'x'
I0
sg65
g66
sg78
g79
sg84
Nsba(isquare
Square
p2661
(dp2662
S'y'
I16
sS'x'
I1
sg65
g66
sg78
g79
sg84
Nsba(isquare
Square
p2663
(dp2664
S'y'
I16
sS'x'
I2
sg65
g66
sg78
g79
sg84
Nsba(isquare
Square
p2665
(dp2666
S'y'
I16
sS'x'
I3
sg65
g66
sg78
g79
sg84
Nsba(isquare
Square
p2667
(dp2668
S'y'
I16
sS'x'
I4
sg65
g66
sg78
g79
sg84
Nsba(isquare
Square
p2669
(dp2670
S'y'
I16
sS'x'
I5
sg65
g66
sg78
g79
sg84
Nsba(isquare
Square
p2671
(dp2672
S'y'
I16
sS'x'
I6
sg65
g66
sg78
g79
sg84
Nsba(isquare
Square
p2673
(dp2674
S'y'
I16
sS'x'
I7
sg65
g66
sg78
g79
sg84
Nsba(isquare
Square
p2675
(dp2676
S'y'
I16
sS'x'
I8
sg65
g66
sg78
g79
sg84
Nsba(isquare
Square
p2677
(dp2678
S'y'
I16
sS'x'
I9
sg65
g66
sg78
g79
sg84
Nsba(isquare
Square
p2679
(dp2680
S'y'
I16
sS'x'
I10
sg65
g66
sg78
g79
sg84
Nsba(isquare
Square
p2681
(dp2682
S'y'
I16
sS'x'
I11
sg65
g66
sg78
g79
sg84
Nsba(isquare
Square
p2683
(dp2684
S'y'
I16
sS'x'
I12
sg65
g66
sg78
g79
sg84
Nsba(isquare
Square
p2685
(dp2686
S'y'
I16
sS'x'
I13
sg65
g66
sg78
g79
sg84
Nsba(isquare
Square
p2687
(dp2688
S'y'
I16
sS'x'
I14
sg65
g66
sg78
g79
sg84
Nsba(isquare
Square
p2689
(dp2690
S'y'
I16
sS'x'
I15
sg65
g66
sg78
g79
sg84
Nsba(isquare
Square
p2691
(dp2692
S'y'
I16
sS'x'
I16
sg65
g66
sg78
g79
sg84
Nsba(isquare
Square
p2693
(dp2694
S'y'
I16
sS'x'
I17
sg65
g66
sg78
g79
sg84
Nsba(isquare
Square
p2695
(dp2696
S'y'
I16
sS'x'
I18
sg65
g66
sg78
g79
sg84
Nsba(isquare
Square
p2697
(dp2698
S'y'
I16
sS'x'
I19
sg65
g66
sg78
g79
sg84
Nsba(isquare
Square
p2699
(dp2700
S'y'
I16
sS'x'
I20
sg65
g66
sg78
g79
sg84
Nsba(isquare
Square
p2701
(dp2702
S'y'
I16
sS'x'
I21
sg65
g66
sg78
g79
sg84
Nsba(isquare
Square
p2703
(dp2704
S'y'
I16
sS'x'
I22
sg65
g66
sg78
g79
sg84
Nsba(isquare
Square
p2705
(dp2706
S'y'
I16
sS'x'
I23
sg65
g66
sg78
g79
sg84
Nsba(isquare
Square
p2707
(dp2708
S'y'
I16
sS'x'
I24
sg65
g66
sg78
g79
sg84
Nsba(isquare
Square
p2709
(dp2710
S'y'
I16
sS'x'
I25
sg65
g66
sg78
g79
sg84
Nsba(isquare
Square
p2711
(dp2712
S'y'
I16
sS'x'
I26
sg65
g66
sg78
g79
sg84
Nsba(isquare
Square
p2713
(dp2714
S'y'
I16
sS'x'
I27
sg65
g66
sg78
g79
sg84
Nsba(isquare
Square
p2715
(dp2716
S'y'
I16
sS'x'
I28
sg65
g66
sg78
g79
sg84
Nsba(isquare
Square
p2717
(dp2718
S'y'
I16
sS'x'
I29
sg65
g66
sg78
g79
sg84
Nsba(isquare
Square
p2719
(dp2720
S'y'
I16
sS'x'
I30
sg65
g66
sg78
g79
sg84
Nsba(isquare
Square
p2721
(dp2722
S'y'
I16
sS'x'
I31
sg65
g66
sg78
g79
sg84
Nsba(isquare
Square
p2723
(dp2724
S'y'
I16
sS'x'
I32
sg65
g66
sg78
g79
sg84
Nsba(isquare
Square
p2725
(dp2726
S'y'
I16
sS'x'
I33
sg65
g66
sg78
g79
sg84
Nsba(isquare
Square
p2727
(dp2728
S'y'
I16
sS'x'
I34
sg65
g66
sg78
g79
sg84
Nsba(isquare
Square
p2729
(dp2730
S'y'
I16
sS'x'
I35
sg65
g66
sg78
g79
sg84
Nsba(isquare
Square
p2731
(dp2732
S'y'
I16
sS'x'
I36
sg65
g66
sg78
g79
sg84
Nsba(isquare
Square
p2733
(dp2734
S'y'
I16
sS'x'
I37
sg65
g66
sg78
g79
sg84
Nsba(isquare
Square
p2735
(dp2736
S'y'
I16
sS'x'
I38
sg65
g66
sg78
g79
sg84
Nsba(isquare
Square
p2737
(dp2738
S'y'
I16
sS'x'
I39
sg65
g66
sg78
g79
sg84
Nsba(isquare
Square
p2739
(dp2740
S'y'
I16
sS'x'
I40
sg65
g66
sg78
g79
sg84
Nsba(isquare
Square
p2741
(dp2742
S'y'
I16
sS'x'
I41
sg65
g66
sg78
g79
sg84
Nsba(isquare
Square
p2743
(dp2744
S'y'
I16
sS'x'
I42
sg65
g66
sg78
g79
sg84
Nsba(isquare
Square
p2745
(dp2746
S'y'
I16
sS'x'
I43
sg65
g66
sg78
g79
sg84
Nsba(isquare
Square
p2747
(dp2748
S'y'
I16
sS'x'
I44
sg65
g66
sg78
g79
sg84
Nsba(isquare
Square
p2749
(dp2750
S'y'
I16
sS'x'
I45
sg65
g66
sg78
g79
sg84
Nsba(isquare
Square
p2751
(dp2752
S'y'
I16
sS'x'
I46
sg65
g66
sg78
g79
sg84
Nsba(isquare
Square
p2753
(dp2754
S'y'
I16
sS'x'
I47
sg65
g66
sg78
g79
sg84
Nsba(isquare
Square
p2755
(dp2756
S'y'
I16
sS'x'
I48
sg65
g66
sg78
g79
sg84
Nsba(isquare
Square
p2757
(dp2758
S'y'
I16
sS'x'
I49
sg65
g66
sg78
g79
sg84
Nsba(isquare
Square
p2759
(dp2760
S'y'
I16
sS'x'
I50
sg65
g66
sg78
g79
sg84
Nsba(isquare
Square
p2761
(dp2762
S'y'
I16
sS'x'
I51
sg65
g66
sg78
g79
sg84
Nsba(isquare
Square
p2763
(dp2764
S'y'
I16
sS'x'
I52
sg65
g66
sg78
g79
sg84
Nsba(isquare
Square
p2765
(dp2766
S'y'
I16
sS'x'
I53
sg65
g66
sg78
g79
sg84
Nsba(isquare
Square
p2767
(dp2768
S'y'
I16
sS'x'
I54
sg65
g66
sg78
g79
sg84
Nsba(isquare
Square
p2769
(dp2770
S'y'
I16
sS'x'
I55
sg65
g66
sg78
g79
sg84
Nsba(isquare
Square
p2771
(dp2772
S'y'
I16
sS'x'
I56
sg65
g66
sg78
g79
sg84
Nsba(isquare
Square
p2773
(dp2774
S'y'
I16
sS'x'
I57
sg65
g66
sg78
g79
sg84
Nsba(isquare
Square
p2775
(dp2776
S'y'
I16
sS'x'
I58
sg65
g66
sg78
g79
sg84
Nsba(isquare
Square
p2777
(dp2778
S'y'
I16
sS'x'
I59
sg65
g66
sg78
g79
sg84
Nsba(isquare
Square
p2779
(dp2780
S'y'
I16
sS'x'
I60
sg65
g66
sg78
g79
sg84
Nsba(isquare
Square
p2781
(dp2782
S'y'
I16
sS'x'
I61
sg65
g66
sg78
g79
sg84
Nsba(isquare
Square
p2783
(dp2784
S'y'
I16
sS'x'
I62
sg65
g66
sg78
g79
sg84
Nsba(isquare
Square
p2785
(dp2786
S'y'
I16
sS'x'
I63
sg65
g66
sg78
g79
sg84
Nsba(isquare
Square
p2787
(dp2788
S'y'
I16
sS'x'
I64
sg65
g66
sg78
g79
sg84
Nsba(isquare
Square
p2789
(dp2790
S'y'
I16
sS'x'
I65
sg65
g66
sg78
g79
sg84
Nsba(isquare
Square
p2791
(dp2792
S'y'
I16
sS'x'
I66
sg65
g66
sg78
g79
sg84
Nsba(isquare
Square
p2793
(dp2794
S'y'
I16
sS'x'
I67
sg65
g66
sg78
g79
sg84
Nsba(isquare
Square
p2795
(dp2796
S'y'
I16
sS'x'
I68
sg65
g66
sg78
g79
sg84
Nsba(isquare
Square
p2797
(dp2798
S'y'
I16
sS'x'
I69
sg65
g66
sg78
g79
sg84
Nsba(isquare
Square
p2799
(dp2800
S'y'
I16
sS'x'
I70
sg65
g66
sg78
g79
sg84
Nsba(isquare
Square
p2801
(dp2802
S'y'
I16
sS'x'
I71
sg65
g66
sg78
g79
sg84
Nsba(isquare
Square
p2803
(dp2804
S'y'
I16
sS'x'
I72
sg65
g66
sg78
g79
sg84
Nsba(isquare
Square
p2805
(dp2806
S'y'
I16
sS'x'
I73
sg65
g66
sg78
g79
sg84
Nsba(isquare
Square
p2807
(dp2808
S'y'
I16
sS'x'
I74
sg65
g66
sg78
g79
sg84
Nsba(isquare
Square
p2809
(dp2810
S'y'
I16
sS'x'
I75
sg65
g66
sg78
g79
sg84
Nsba(isquare
Square
p2811
(dp2812
S'y'
I16
sS'x'
I76
sg65
g66
sg78
g79
sg84
Nsba(isquare
Square
p2813
(dp2814
S'y'
I16
sS'x'
I77
sg65
g66
sg78
g79
sg84
Nsba(isquare
Square
p2815
(dp2816
S'y'
I16
sS'x'
I78
sg65
g66
sg78
g79
sg84
Nsba(isquare
Square
p2817
(dp2818
S'y'
I16
sS'x'
I79
sg65
g66
sg78
g79
sg84
Nsbaa(lp2819
(isquare
Square
p2820
(dp2821
S'y'
I17
sS'x'
I0
sg65
g66
sg78
g79
sg84
Nsba(isquare
Square
p2822
(dp2823
S'y'
I17
sS'x'
I1
sg65
g66
sg78
g79
sg84
Nsba(isquare
Square
p2824
(dp2825
S'y'
I17
sS'x'
I2
sg65
g66
sg78
g79
sg84
Nsba(isquare
Square
p2826
(dp2827
S'y'
I17
sS'x'
I3
sg65
g66
sg78
g79
sg84
Nsba(isquare
Square
p2828
(dp2829
S'y'
I17
sS'x'
I4
sg65
g66
sg78
g79
sg84
Nsba(isquare
Square
p2830
(dp2831
S'y'
I17
sS'x'
I5
sg65
g66
sg78
g79
sg84
Nsba(isquare
Square
p2832
(dp2833
S'y'
I17
sS'x'
I6
sg65
g66
sg78
g79
sg84
Nsba(isquare
Square
p2834
(dp2835
S'y'
I17
sS'x'
I7
sg65
g66
sg78
g79
sg84
Nsba(isquare
Square
p2836
(dp2837
S'y'
I17
sS'x'
I8
sg65
g66
sg78
g79
sg84
Nsba(isquare
Square
p2838
(dp2839
S'y'
I17
sS'x'
I9
sg65
g66
sg78
g79
sg84
Nsba(isquare
Square
p2840
(dp2841
S'y'
I17
sS'x'
I10
sg65
g66
sg78
g79
sg84
Nsba(isquare
Square
p2842
(dp2843
S'y'
I17
sS'x'
I11
sg65
g66
sg78
g79
sg84
Nsba(isquare
Square
p2844
(dp2845
S'y'
I17
sS'x'
I12
sg65
g66
sg78
g79
sg84
Nsba(isquare
Square
p2846
(dp2847
S'y'
I17
sS'x'
I13
sg65
g66
sg78
g79
sg84
Nsba(isquare
Square
p2848
(dp2849
S'y'
I17
sS'x'
I14
sg65
g66
sg78
g79
sg84
Nsba(isquare
Square
p2850
(dp2851
S'y'
I17
sS'x'
I15
sg65
g66
sg78
g79
sg84
Nsba(isquare
Square
p2852
(dp2853
S'y'
I17
sS'x'
I16
sg65
g66
sg78
g79
sg84
Nsba(isquare
Square
p2854
(dp2855
S'y'
I17
sS'x'
I17
sg65
g66
sg78
g79
sg84
Nsba(isquare
Square
p2856
(dp2857
S'y'
I17
sS'x'
I18
sg65
g66
sg78
g79
sg84
Nsba(isquare
Square
p2858
(dp2859
S'y'
I17
sS'x'
I19
sg65
g66
sg78
g79
sg84
Nsba(isquare
Square
p2860
(dp2861
S'y'
I17
sS'x'
I20
sg65
g66
sg78
g79
sg84
Nsba(isquare
Square
p2862
(dp2863
S'y'
I17
sS'x'
I21
sg65
g66
sg78
g79
sg84
Nsba(isquare
Square
p2864
(dp2865
S'y'
I17
sS'x'
I22
sg65
g66
sg78
g79
sg84
Nsba(isquare
Square
p2866
(dp2867
S'y'
I17
sS'x'
I23
sg65
g66
sg78
g79
sg84
Nsba(isquare
Square
p2868
(dp2869
S'y'
I17
sS'x'
I24
sg65
g66
sg78
g79
sg84
Nsba(isquare
Square
p2870
(dp2871
S'y'
I17
sS'x'
I25
sg65
g66
sg78
g79
sg84
Nsba(isquare
Square
p2872
(dp2873
S'y'
I17
sS'x'
I26
sg65
g66
sg78
g79
sg84
Nsba(isquare
Square
p2874
(dp2875
S'y'
I17
sS'x'
I27
sg65
g66
sg78
g79
sg84
Nsba(isquare
Square
p2876
(dp2877
S'y'
I17
sS'x'
I28
sg65
g66
sg78
g79
sg84
Nsba(isquare
Square
p2878
(dp2879
S'y'
I17
sS'x'
I29
sg65
g66
sg78
g79
sg84
Nsba(isquare
Square
p2880
(dp2881
S'y'
I17
sS'x'
I30
sg65
g66
sg78
g79
sg84
Nsba(isquare
Square
p2882
(dp2883
S'y'
I17
sS'x'
I31
sg65
g66
sg78
g79
sg84
Nsba(isquare
Square
p2884
(dp2885
S'y'
I17
sS'x'
I32
sg65
g66
sg78
g79
sg84
Nsba(isquare
Square
p2886
(dp2887
S'y'
I17
sS'x'
I33
sg65
g66
sg78
g79
sg84
Nsba(isquare
Square
p2888
(dp2889
S'y'
I17
sS'x'
I34
sg65
g66
sg78
g79
sg84
Nsba(isquare
Square
p2890
(dp2891
S'y'
I17
sS'x'
I35
sg65
g66
sg78
g79
sg84
Nsba(isquare
Square
p2892
(dp2893
S'y'
I17
sS'x'
I36
sg65
g66
sg78
g79
sg84
Nsba(isquare
Square
p2894
(dp2895
S'y'
I17
sS'x'
I37
sg65
g66
sg78
g79
sg84
Nsba(isquare
Square
p2896
(dp2897
S'y'
I17
sS'x'
I38
sg65
g66
sg78
g79
sg84
Nsba(isquare
Square
p2898
(dp2899
S'y'
I17
sS'x'
I39
sg65
g66
sg78
g79
sg84
Nsba(isquare
Square
p2900
(dp2901
S'y'
I17
sS'x'
I40
sg65
g66
sg78
g79
sg84
Nsba(isquare
Square
p2902
(dp2903
S'y'
I17
sS'x'
I41
sg65
g66
sg78
g79
sg84
Nsba(isquare
Square
p2904
(dp2905
S'y'
I17
sS'x'
I42
sg65
g66
sg78
g79
sg84
Nsba(isquare
Square
p2906
(dp2907
S'y'
I17
sS'x'
I43
sg65
g66
sg78
g79
sg84
Nsba(isquare
Square
p2908
(dp2909
S'y'
I17
sS'x'
I44
sg65
g66
sg78
g79
sg84
Nsba(isquare
Square
p2910
(dp2911
S'y'
I17
sS'x'
I45
sg65
g66
sg78
g79
sg84
Nsba(isquare
Square
p2912
(dp2913
S'y'
I17
sS'x'
I46
sg65
g66
sg78
g79
sg84
Nsba(isquare
Square
p2914
(dp2915
S'y'
I17
sS'x'
I47
sg65
g66
sg78
g79
sg84
Nsba(isquare
Square
p2916
(dp2917
S'y'
I17
sS'x'
I48
sg65
g66
sg78
g79
sg84
Nsba(isquare
Square
p2918
(dp2919
S'y'
I17
sS'x'
I49
sg65
g66
sg78
g79
sg84
Nsba(isquare
Square
p2920
(dp2921
S'y'
I17
sS'x'
I50
sg65
g66
sg78
g79
sg84
Nsba(isquare
Square
p2922
(dp2923
S'y'
I17
sS'x'
I51
sg65
g66
sg78
g79
sg84
Nsba(isquare
Square
p2924
(dp2925
S'y'
I17
sS'x'
I52
sg65
g66
sg78
g79
sg84
Nsba(isquare
Square
p2926
(dp2927
S'y'
I17
sS'x'
I53
sg65
g66
sg78
g79
sg84
Nsba(isquare
Square
p2928
(dp2929
S'y'
I17
sS'x'
I54
sg65
g66
sg78
g79
sg84
Nsba(isquare
Square
p2930
(dp2931
S'y'
I17
sS'x'
I55
sg65
g66
sg78
g79
sg84
Nsba(isquare
Square
p2932
(dp2933
S'y'
I17
sS'x'
I56
sg65
g66
sg78
g79
sg84
Nsba(isquare
Square
p2934
(dp2935
S'y'
I17
sS'x'
I57
sg65
g66
sg78
g79
sg84
Nsba(isquare
Square
p2936
(dp2937
S'y'
I17
sS'x'
I58
sg65
g66
sg78
g79
sg84
Nsba(isquare
Square
p2938
(dp2939
S'y'
I17
sS'x'
I59
sg65
g66
sg78
g79
sg84
Nsba(isquare
Square
p2940
(dp2941
S'y'
I17
sS'x'
I60
sg65
g66
sg78
g79
sg84
Nsba(isquare
Square
p2942
(dp2943
S'y'
I17
sS'x'
I61
sg65
g66
sg78
g79
sg84
Nsba(isquare
Square
p2944
(dp2945
S'y'
I17
sS'x'
I62
sg65
g66
sg78
g79
sg84
Nsba(isquare
Square
p2946
(dp2947
S'y'
I17
sS'x'
I63
sg65
g66
sg78
g79
sg84
Nsba(isquare
Square
p2948
(dp2949
S'y'
I17
sS'x'
I64
sg65
g66
sg78
g79
sg84
Nsba(isquare
Square
p2950
(dp2951
S'y'
I17
sS'x'
I65
sg65
g66
sg78
g79
sg84
Nsba(isquare
Square
p2952
(dp2953
S'y'
I17
sS'x'
I66
sg65
g66
sg78
g79
sg84
Nsba(isquare
Square
p2954
(dp2955
S'y'
I17
sS'x'
I67
sg65
g66
sg78
g79
sg84
Nsba(isquare
Square
p2956
(dp2957
S'y'
I17
sS'x'
I68
sg65
g66
sg78
g79
sg84
Nsba(isquare
Square
p2958
(dp2959
S'y'
I17
sS'x'
I69
sg65
g66
sg78
g79
sg84
Nsba(isquare
Square
p2960
(dp2961
S'y'
I17
sS'x'
I70
sg65
g66
sg78
g79
sg84
Nsba(isquare
Square
p2962
(dp2963
S'y'
I17
sS'x'
I71
sg65
g66
sg78
g79
sg84
Nsba(isquare
Square
p2964
(dp2965
S'y'
I17
sS'x'
I72
sg65
g66
sg78
g79
sg84
Nsba(isquare
Square
p2966
(dp2967
S'y'
I17
sS'x'
I73
sg65
g66
sg78
g79
sg84
Nsba(isquare
Square
p2968
(dp2969
S'y'
I17
sS'x'
I74
sg65
g66
sg78
g79
sg84
Nsba(isquare
Square
p2970
(dp2971
S'y'
I17
sS'x'
I75
sg65
g66
sg78
g79
sg84
Nsba(isquare
Square
p2972
(dp2973
S'y'
I17
sS'x'
I76
sg65
g66
sg78
g79
sg84
Nsba(isquare
Square
p2974
(dp2975
S'y'
I17
sS'x'
I77
sg65
g66
sg78
g79
sg84
Nsba(isquare
Square
p2976
(dp2977
S'y'
I17
sS'x'
I78
sg65
g66
sg78
g79
sg84
Nsba(isquare
Square
p2978
(dp2979
S'y'
I17
sS'x'
I79
sg65
g66
sg78
g79
sg84
Nsbaa(lp2980
(isquare
Square
p2981
(dp2982
S'y'
I18
sS'x'
I0
sg65
g66
sg78
g79
sg84
Nsba(isquare
Square
p2983
(dp2984
S'y'
I18
sS'x'
I1
sg65
g66
sg78
g79
sg84
Nsba(isquare
Square
p2985
(dp2986
S'y'
I18
sS'x'
I2
sg65
g66
sg78
g79
sg84
Nsba(isquare
Square
p2987
(dp2988
S'y'
I18
sS'x'
I3
sg65
g66
sg78
g79
sg84
Nsba(isquare
Square
p2989
(dp2990
S'y'
I18
sS'x'
I4
sg65
g66
sg78
g79
sg84
Nsba(isquare
Square
p2991
(dp2992
S'y'
I18
sS'x'
I5
sg65
g66
sg78
g79
sg84
Nsba(isquare
Square
p2993
(dp2994
S'y'
I18
sS'x'
I6
sg65
g66
sg78
g79
sg84
Nsba(isquare
Square
p2995
(dp2996
S'y'
I18
sS'x'
I7
sg65
g66
sg78
g79
sg84
Nsba(isquare
Square
p2997
(dp2998
S'y'
I18
sS'x'
I8
sg65
g66
sg78
g79
sg84
Nsba(isquare
Square
p2999
(dp3000
S'y'
I18
sS'x'
I9
sg65
g66
sg78
g79
sg84
Nsba(isquare
Square
p3001
(dp3002
S'y'
I18
sS'x'
I10
sg65
g66
sg78
g79
sg84
Nsba(isquare
Square
p3003
(dp3004
S'y'
I18
sS'x'
I11
sg65
g66
sg78
g79
sg84
Nsba(isquare
Square
p3005
(dp3006
S'y'
I18
sS'x'
I12
sg65
g66
sg78
g79
sg84
Nsba(isquare
Square
p3007
(dp3008
S'y'
I18
sS'x'
I13
sg65
g66
sg78
g79
sg84
Nsba(isquare
Square
p3009
(dp3010
S'y'
I18
sS'x'
I14
sg65
g66
sg78
g79
sg84
Nsba(isquare
Square
p3011
(dp3012
S'y'
I18
sS'x'
I15
sg65
g66
sg78
g79
sg84
Nsba(isquare
Square
p3013
(dp3014
S'y'
I18
sS'x'
I16
sg65
g66
sg78
g79
sg84
Nsba(isquare
Square
p3015
(dp3016
S'y'
I18
sS'x'
I17
sg65
g66
sg78
g79
sg84
Nsba(isquare
Square
p3017
(dp3018
S'y'
I18
sS'x'
I18
sg65
g66
sg78
g79
sg84
Nsba(isquare
Square
p3019
(dp3020
S'y'
I18
sS'x'
I19
sg65
g66
sg78
g79
sg84
Nsba(isquare
Square
p3021
(dp3022
S'y'
I18
sS'x'
I20
sg65
g66
sg78
g79
sg84
Nsba(isquare
Square
p3023
(dp3024
S'y'
I18
sS'x'
I21
sg65
g66
sg78
g79
sg84
Nsba(isquare
Square
p3025
(dp3026
S'y'
I18
sS'x'
I22
sg65
g66
sg78
g79
sg84
Nsba(isquare
Square
p3027
(dp3028
S'y'
I18
sS'x'
I23
sg65
g66
sg78
g79
sg84
Nsba(isquare
Square
p3029
(dp3030
S'y'
I18
sS'x'
I24
sg65
g66
sg78
g79
sg84
Nsba(isquare
Square
p3031
(dp3032
S'y'
I18
sS'x'
I25
sg65
g66
sg78
g79
sg84
Nsba(isquare
Square
p3033
(dp3034
S'y'
I18
sS'x'
I26
sg65
g66
sg78
g79
sg84
Nsba(isquare
Square
p3035
(dp3036
S'y'
I18
sS'x'
I27
sg65
g66
sg78
g79
sg84
Nsba(isquare
Square
p3037
(dp3038
S'y'
I18
sS'x'
I28
sg65
g66
sg78
g79
sg84
Nsba(isquare
Square
p3039
(dp3040
S'y'
I18
sS'x'
I29
sg65
g66
sg78
g79
sg84
Nsba(isquare
Square
p3041
(dp3042
S'y'
I18
sS'x'
I30
sg65
g66
sg78
g79
sg84
Nsba(isquare
Square
p3043
(dp3044
S'y'
I18
sS'x'
I31
sg65
g66
sg78
g79
sg84
Nsba(isquare
Square
p3045
(dp3046
S'y'
I18
sS'x'
I32
sg65
g66
sg78
g79
sg84
Nsba(isquare
Square
p3047
(dp3048
S'y'
I18
sS'x'
I33
sg65
g66
sg78
g79
sg84
Nsba(isquare
Square
p3049
(dp3050
S'y'
I18
sS'x'
I34
sg65
g66
sg78
g79
sg84
Nsba(isquare
Square
p3051
(dp3052
S'y'
I18
sS'x'
I35
sg65
g66
sg78
g79
sg84
Nsba(isquare
Square
p3053
(dp3054
S'y'
I18
sS'x'
I36
sg65
g66
sg78
g79
sg84
Nsba(isquare
Square
p3055
(dp3056
S'y'
I18
sS'x'
I37
sg65
g66
sg78
g79
sg84
Nsba(isquare
Square
p3057
(dp3058
S'y'
I18
sS'x'
I38
sg65
g66
sg78
g79
sg84
Nsba(isquare
Square
p3059
(dp3060
S'y'
I18
sS'x'
I39
sg65
g66
sg78
g79
sg84
Nsba(isquare
Square
p3061
(dp3062
S'y'
I18
sS'x'
I40
sg65
g66
sg78
g79
sg84
Nsba(isquare
Square
p3063
(dp3064
S'y'
I18
sS'x'
I41
sg65
g66
sg78
g79
sg84
Nsba(isquare
Square
p3065
(dp3066
S'y'
I18
sS'x'
I42
sg65
g66
sg78
g79
sg84
Nsba(isquare
Square
p3067
(dp3068
S'y'
I18
sS'x'
I43
sg65
g66
sg78
g79
sg84
Nsba(isquare
Square
p3069
(dp3070
S'y'
I18
sS'x'
I44
sg65
g66
sg78
g79
sg84
Nsba(isquare
Square
p3071
(dp3072
S'y'
I18
sS'x'
I45
sg65
g66
sg78
g79
sg84
Nsba(isquare
Square
p3073
(dp3074
S'y'
I18
sS'x'
I46
sg65
g66
sg78
g79
sg84
Nsba(isquare
Square
p3075
(dp3076
S'y'
I18
sS'x'
I47
sg65
g66
sg78
g79
sg84
Nsba(isquare
Square
p3077
(dp3078
S'y'
I18
sS'x'
I48
sg65
g66
sg78
g79
sg84
Nsba(isquare
Square
p3079
(dp3080
S'y'
I18
sS'x'
I49
sg65
g66
sg78
g79
sg84
Nsba(isquare
Square
p3081
(dp3082
S'y'
I18
sS'x'
I50
sg65
g66
sg78
g79
sg84
Nsba(isquare
Square
p3083
(dp3084
S'y'
I18
sS'x'
I51
sg65
g66
sg78
g79
sg84
Nsba(isquare
Square
p3085
(dp3086
S'y'
I18
sS'x'
I52
sg65
g66
sg78
g79
sg84
Nsba(isquare
Square
p3087
(dp3088
S'y'
I18
sS'x'
I53
sg65
g66
sg78
g79
sg84
Nsba(isquare
Square
p3089
(dp3090
S'y'
I18
sS'x'
I54
sg65
g66
sg78
g79
sg84
Nsba(isquare
Square
p3091
(dp3092
S'y'
I18
sS'x'
I55
sg65
g66
sg78
g79
sg84
Nsba(isquare
Square
p3093
(dp3094
S'y'
I18
sS'x'
I56
sg65
g66
sg78
g79
sg84
Nsba(isquare
Square
p3095
(dp3096
S'y'
I18
sS'x'
I57
sg65
g66
sg78
g79
sg84
Nsba(isquare
Square
p3097
(dp3098
S'y'
I18
sS'x'
I58
sg65
g66
sg78
g79
sg84
Nsba(isquare
Square
p3099
(dp3100
S'y'
I18
sS'x'
I59
sg65
g66
sg78
g79
sg84
Nsba(isquare
Square
p3101
(dp3102
S'y'
I18
sS'x'
I60
sg65
g66
sg78
g79
sg84
Nsba(isquare
Square
p3103
(dp3104
S'y'
I18
sS'x'
I61
sg65
g66
sg78
g79
sg84
Nsba(isquare
Square
p3105
(dp3106
S'y'
I18
sS'x'
I62
sg65
g66
sg78
g79
sg84
Nsba(isquare
Square
p3107
(dp3108
S'y'
I18
sS'x'
I63
sg65
g66
sg78
g79
sg84
Nsba(isquare
Square
p3109
(dp3110
S'y'
I18
sS'x'
I64
sg65
g66
sg78
g79
sg84
Nsba(isquare
Square
p3111
(dp3112
S'y'
I18
sS'x'
I65
sg65
g66
sg78
g79
sg84
Nsba(isquare
Square
p3113
(dp3114
S'y'
I18
sS'x'
I66
sg65
g66
sg78
g79
sg84
Nsba(isquare
Square
p3115
(dp3116
S'y'
I18
sS'x'
I67
sg65
g66
sg78
g79
sg84
Nsba(isquare
Square
p3117
(dp3118
S'y'
I18
sS'x'
I68
sg65
g66
sg78
g79
sg84
Nsba(isquare
Square
p3119
(dp3120
S'y'
I18
sS'x'
I69
sg65
g66
sg78
g79
sg84
Nsba(isquare
Square
p3121
(dp3122
S'y'
I18
sS'x'
I70
sg65
g66
sg78
g79
sg84
Nsba(isquare
Square
p3123
(dp3124
S'y'
I18
sS'x'
I71
sg65
g66
sg78
g79
sg84
Nsba(isquare
Square
p3125
(dp3126
S'y'
I18
sS'x'
I72
sg65
g66
sg78
g79
sg84
Nsba(isquare
Square
p3127
(dp3128
S'y'
I18
sS'x'
I73
sg65
g66
sg78
g79
sg84
Nsba(isquare
Square
p3129
(dp3130
S'y'
I18
sS'x'
I74
sg65
g66
sg78
g79
sg84
Nsba(isquare
Square
p3131
(dp3132
S'y'
I18
sS'x'
I75
sg65
g66
sg78
g79
sg84
Nsba(isquare
Square
p3133
(dp3134
S'y'
I18
sS'x'
I76
sg65
g66
sg78
g79
sg84
Nsba(isquare
Square
p3135
(dp3136
S'y'
I18
sS'x'
I77
sg65
g66
sg78
g79
sg84
Nsba(isquare
Square
p3137
(dp3138
S'y'
I18
sS'x'
I78
sg65
g66
sg78
g79
sg84
Nsba(isquare
Square
p3139
(dp3140
S'y'
I18
sS'x'
I79
sg65
g66
sg78
g79
sg84
Nsbaa(lp3141
(isquare
Square
p3142
(dp3143
S'y'
I19
sS'x'
I0
sg65
g66
sg78
g79
sg84
Nsba(isquare
Square
p3144
(dp3145
S'y'
I19
sS'x'
I1
sg65
g66
sg78
g79
sg84
Nsba(isquare
Square
p3146
(dp3147
S'y'
I19
sS'x'
I2
sg65
g66
sg78
g79
sg84
Nsba(isquare
Square
p3148
(dp3149
S'y'
I19
sS'x'
I3
sg65
g66
sg78
g79
sg84
Nsba(isquare
Square
p3150
(dp3151
S'y'
I19
sS'x'
I4
sg65
g66
sg78
g79
sg84
Nsba(isquare
Square
p3152
(dp3153
S'y'
I19
sS'x'
I5
sg65
g66
sg78
g79
sg84
Nsba(isquare
Square
p3154
(dp3155
S'y'
I19
sS'x'
I6
sg65
g66
sg78
g79
sg84
Nsba(isquare
Square
p3156
(dp3157
S'y'
I19
sS'x'
I7
sg65
g66
sg78
g79
sg84
Nsba(isquare
Square
p3158
(dp3159
S'y'
I19
sS'x'
I8
sg65
g66
sg78
g79
sg84
Nsba(isquare
Square
p3160
(dp3161
S'y'
I19
sS'x'
I9
sg65
g66
sg78
g79
sg84
Nsba(isquare
Square
p3162
(dp3163
S'y'
I19
sS'x'
I10
sg65
g66
sg78
g79
sg84
Nsba(isquare
Square
p3164
(dp3165
S'y'
I19
sS'x'
I11
sg65
g66
sg78
g79
sg84
Nsba(isquare
Square
p3166
(dp3167
S'y'
I19
sS'x'
I12
sg65
g66
sg78
g79
sg84
Nsba(isquare
Square
p3168
(dp3169
S'y'
I19
sS'x'
I13
sg65
g66
sg78
g79
sg84
Nsba(isquare
Square
p3170
(dp3171
S'y'
I19
sS'x'
I14
sg65
g66
sg78
g79
sg84
Nsba(isquare
Square
p3172
(dp3173
S'y'
I19
sS'x'
I15
sg65
g66
sg78
g79
sg84
Nsba(isquare
Square
p3174
(dp3175
S'y'
I19
sS'x'
I16
sg65
g66
sg78
g79
sg84
Nsba(isquare
Square
p3176
(dp3177
S'y'
I19
sS'x'
I17
sg65
g66
sg78
g79
sg84
Nsba(isquare
Square
p3178
(dp3179
S'y'
I19
sS'x'
I18
sg65
g66
sg78
g79
sg84
Nsba(isquare
Square
p3180
(dp3181
S'y'
I19
sS'x'
I19
sg65
g66
sg78
g79
sg84
Nsba(isquare
Square
p3182
(dp3183
S'y'
I19
sS'x'
I20
sg65
g66
sg78
g79
sg84
Nsba(isquare
Square
p3184
(dp3185
S'y'
I19
sS'x'
I21
sg65
g66
sg78
g79
sg84
Nsba(isquare
Square
p3186
(dp3187
S'y'
I19
sS'x'
I22
sg65
g66
sg78
g79
sg84
Nsba(isquare
Square
p3188
(dp3189
S'y'
I19
sS'x'
I23
sg65
g66
sg78
g79
sg84
Nsba(isquare
Square
p3190
(dp3191
S'y'
I19
sS'x'
I24
sg65
g66
sg78
g79
sg84
Nsba(isquare
Square
p3192
(dp3193
S'y'
I19
sS'x'
I25
sg65
g66
sg78
g79
sg84
Nsba(isquare
Square
p3194
(dp3195
S'y'
I19
sS'x'
I26
sg65
g66
sg78
g79
sg84
Nsba(isquare
Square
p3196
(dp3197
S'y'
I19
sS'x'
I27
sg65
g66
sg78
g79
sg84
Nsba(isquare
Square
p3198
(dp3199
S'y'
I19
sS'x'
I28
sg65
g66
sg78
g79
sg84
Nsba(isquare
Square
p3200
(dp3201
S'y'
I19
sS'x'
I29
sg65
g66
sg78
g79
sg84
Nsba(isquare
Square
p3202
(dp3203
S'y'
I19
sS'x'
I30
sg65
g66
sg78
g79
sg84
Nsba(isquare
Square
p3204
(dp3205
S'y'
I19
sS'x'
I31
sg65
g66
sg78
g79
sg84
Nsba(isquare
Square
p3206
(dp3207
S'y'
I19
sS'x'
I32
sg65
g66
sg78
g79
sg84
Nsba(isquare
Square
p3208
(dp3209
S'y'
I19
sS'x'
I33
sg65
g66
sg78
g79
sg84
Nsba(isquare
Square
p3210
(dp3211
S'y'
I19
sS'x'
I34
sg65
g66
sg78
g79
sg84
Nsba(isquare
Square
p3212
(dp3213
S'y'
I19
sS'x'
I35
sg65
g66
sg78
g79
sg84
Nsba(isquare
Square
p3214
(dp3215
S'y'
I19
sS'x'
I36
sg65
g66
sg78
g79
sg84
Nsba(isquare
Square
p3216
(dp3217
S'y'
I19
sS'x'
I37
sg65
g66
sg78
g79
sg84
Nsba(isquare
Square
p3218
(dp3219
S'y'
I19
sS'x'
I38
sg65
g66
sg78
g79
sg84
Nsba(isquare
Square
p3220
(dp3221
S'y'
I19
sS'x'
I39
sg65
g66
sg78
g79
sg84
Nsba(isquare
Square
p3222
(dp3223
S'y'
I19
sS'x'
I40
sg65
g66
sg78
g79
sg84
Nsba(isquare
Square
p3224
(dp3225
S'y'
I19
sS'x'
I41
sg65
g66
sg78
g79
sg84
Nsba(isquare
Square
p3226
(dp3227
S'y'
I19
sS'x'
I42
sg65
g66
sg78
g79
sg84
Nsba(isquare
Square
p3228
(dp3229
S'y'
I19
sS'x'
I43
sg65
g66
sg78
g79
sg84
Nsba(isquare
Square
p3230
(dp3231
S'y'
I19
sS'x'
I44
sg65
g66
sg78
g79
sg84
Nsba(isquare
Square
p3232
(dp3233
S'y'
I19
sS'x'
I45
sg65
g66
sg78
g79
sg84
Nsba(isquare
Square
p3234
(dp3235
S'y'
I19
sS'x'
I46
sg65
g66
sg78
g79
sg84
Nsba(isquare
Square
p3236
(dp3237
S'y'
I19
sS'x'
I47
sg65
g66
sg78
g79
sg84
Nsba(isquare
Square
p3238
(dp3239
S'y'
I19
sS'x'
I48
sg65
g66
sg78
g79
sg84
Nsba(isquare
Square
p3240
(dp3241
S'y'
I19
sS'x'
I49
sg65
g66
sg78
g79
sg84
Nsba(isquare
Square
p3242
(dp3243
S'y'
I19
sS'x'
I50
sg65
g66
sg78
g79
sg84
Nsba(isquare
Square
p3244
(dp3245
S'y'
I19
sS'x'
I51
sg65
g66
sg78
g79
sg84
Nsba(isquare
Square
p3246
(dp3247
S'y'
I19
sS'x'
I52
sg65
g66
sg78
g79
sg84
Nsba(isquare
Square
p3248
(dp3249
S'y'
I19
sS'x'
I53
sg65
g66
sg78
g79
sg84
Nsba(isquare
Square
p3250
(dp3251
S'y'
I19
sS'x'
I54
sg65
g66
sg78
g79
sg84
Nsba(isquare
Square
p3252
(dp3253
S'y'
I19
sS'x'
I55
sg65
g66
sg78
g79
sg84
Nsba(isquare
Square
p3254
(dp3255
S'y'
I19
sS'x'
I56
sg65
g66
sg78
g79
sg84
Nsba(isquare
Square
p3256
(dp3257
S'y'
I19
sS'x'
I57
sg65
g66
sg78
g79
sg84
Nsba(isquare
Square
p3258
(dp3259
S'y'
I19
sS'x'
I58
sg65
g66
sg78
g79
sg84
Nsba(isquare
Square
p3260
(dp3261
S'y'
I19
sS'x'
I59
sg65
g66
sg78
g79
sg84
Nsba(isquare
Square
p3262
(dp3263
S'y'
I19
sS'x'
I60
sg65
g66
sg78
g79
sg84
Nsba(isquare
Square
p3264
(dp3265
S'y'
I19
sS'x'
I61
sg65
g66
sg78
g79
sg84
Nsba(isquare
Square
p3266
(dp3267
S'y'
I19
sS'x'
I62
sg65
g66
sg78
g79
sg84
Nsba(isquare
Square
p3268
(dp3269
S'y'
I19
sS'x'
I63
sg65
g66
sg78
g79
sg84
Nsba(isquare
Square
p3270
(dp3271
S'y'
I19
sS'x'
I64
sg65
g66
sg78
g79
sg84
Nsba(isquare
Square
p3272
(dp3273
S'y'
I19
sS'x'
I65
sg65
g66
sg78
g79
sg84
Nsba(isquare
Square
p3274
(dp3275
S'y'
I19
sS'x'
I66
sg65
g66
sg78
g79
sg84
Nsba(isquare
Square
p3276
(dp3277
S'y'
I19
sS'x'
I67
sg65
g66
sg78
g79
sg84
Nsba(isquare
Square
p3278
(dp3279
S'y'
I19
sS'x'
I68
sg65
g66
sg78
g79
sg84
Nsba(isquare
Square
p3280
(dp3281
S'y'
I19
sS'x'
I69
sg65
g66
sg78
g79
sg84
Nsba(isquare
Square
p3282
(dp3283
S'y'
I19
sS'x'
I70
sg65
g66
sg78
g79
sg84
Nsba(isquare
Square
p3284
(dp3285
S'y'
I19
sS'x'
I71
sg65
g66
sg78
g79
sg84
Nsba(isquare
Square
p3286
(dp3287
S'y'
I19
sS'x'
I72
sg65
g66
sg78
g79
sg84
Nsba(isquare
Square
p3288
(dp3289
S'y'
I19
sS'x'
I73
sg65
g66
sg78
g79
sg84
Nsba(isquare
Square
p3290
(dp3291
S'y'
I19
sS'x'
I74
sg65
g66
sg78
g79
sg84
Nsba(isquare
Square
p3292
(dp3293
S'y'
I19
sS'x'
I75
sg65
g66
sg78
g79
sg84
Nsba(isquare
Square
p3294
(dp3295
S'y'
I19
sS'x'
I76
sg65
g66
sg78
g79
sg84
Nsba(isquare
Square
p3296
(dp3297
S'y'
I19
sS'x'
I77
sg65
g66
sg78
g79
sg84
Nsba(isquare
Square
p3298
(dp3299
S'y'
I19
sS'x'
I78
sg65
g66
sg78
g79
sg84
Nsba(isquare
Square
p3300
(dp3301
S'y'
I19
sS'x'
I79
sg65
g66
sg78
g79
sg84
NsbaasS'squares'
p3302
(dp3303
sbssb.