ccopy_reg
_reconstructor
p0
(cdungeonproperties
DungeonProperties
p1
c__builtin__
object
p2
Ntp3
Rp4
(dp5
S'tilemaps'
p6
(dp7
S'wild'
p8
g0
(cdungeonproperties
TileMap
p9
c__builtin__
list
p10
(lp11
S'f'
p12
ag12
ag12
ag12
ag12
ag12
ag12
ag12
ag12
ag12
ag12
ag12
ag12
ag12
ag12
ag12
ag12
ag12
ag12
ag12
ag12
ag12
ag12
ag12
ag12
ag12
ag12
ag12
ag12
ag12
ag12
ag12
ag12
ag12
ag12
ag12
ag12
ag12
ag12
ag12
ag12
ag12
ag12
ag12
ag12
ag12
ag12
ag12
ag12
ag12
ag12
ag12
ag12
ag12
ag12
ag12
ag12
ag12
ag12
ag12
ag12
ag12
ag12
ag12
ag12
ag12
ag12
ag12
ag12
ag12
ag12
ag12
ag12
ag12
ag12
ag12
ag12
ag12
ag12
ag12
ag12
ag12
ag12
ag12
ag12
ag12
ag12
ag12
ag12
ag12
ag12
ag12
ag12
ag12
ag12
ag12
ag12
ag12
ag12
ag12
ag12
ag12
ag12
ag12
ag12
ag12
ag12
ag12
ag12
ag12
ag12
ag12
ag12
ag12
ag12
ag12
ag12
ag12
ag12
ag12
ag12
ag12
ag12
ag12
ag12
ag12
ag12
ag12
ag12
ag12
ag12
ag12
ag12
ag12
ag12
ag12
ag12
ag12
ag12
ag12
ag12
ag12
ag12
ag12
ag12
ag12
ag12
ag12
ag12
ag12
ag12
ag12
ag12
ag12
ag12
ag12
ag12
ag12
ag12
ag12
ag12
ag12
ag12
ag12
ag12
ag12
ag12
ag12
ag12
ag12
ag12
ag12
ag12
ag12
ag12
ag12
ag12
ag12
ag12
ag12
ag12
ag12
ag12
ag12
ag12
ag12
ag12
ag12
ag12
ag12
ag12
ag12
ag12
ag12
ag12
ag12
ag12
ag12
ag12
ag12
ag12
ag12
ag12
ag12
ag12
ag12
ag12
ag12
ag12
ag12
ag12
ag12
ag12
ag12
ag12
ag12
ag12
ag12
ag12
ag12
ag12
ag12
ag12
ag12
ag12
ag12
ag12
ag12
ag12
ag12
ag12
ag12
ag12
ag12
ag12
ag12
ag12
ag12
ag12
ag12
ag12
ag12
ag12
ag12
ag12
ag12
ag12
ag12
ag12
ag12
ag12
ag12
ag12
ag12
ag12
ag12
ag12
ag12
ag12
ag12
ag12
ag12
ag12
ag12
ag12
ag12
ag12
ag12
ag12
ag12
ag12
ag12
ag12
ag12
ag12
ag12
ag12
ag12
ag12
ag12
ag12
ag12
ag12
ag12
ag12
ag12
ag12
ag12
ag12
ag12
ag12
ag12
ag12
ag12
ag12
ag12
ag12
ag12
ag12
ag12
ag12
ag12
ag12
ag12
ag12
ag12
ag12
ag12
ag12
ag12
ag12
ag12
ag12
ag12
ag12
ag12
ag12
ag12
ag12
ag12
ag12
ag12
ag12
ag12
ag12
ag12
ag12
ag12
ag12
ag12
ag12
ag12
ag12
ag12
ag12
ag12
ag12
ag12
ag12
ag12
ag12
ag12
ag12
ag12
ag12
ag12
ag12
ag12
ag12
ag12
ag12
ag12
ag12
ag12
ag12
ag12
ag12
ag12
ag12
ag12
ag12
ag12
ag12
ag12
ag12
ag12
ag12
ag12
ag12
ag12
ag12
ag12
ag12
ag12
ag12
ag12
ag12
ag12
ag12
ag12
ag12
ag12
ag12
ag12
ag12
ag12
ag12
ag12
ag12
ag12
ag12
ag12
ag12
ag12
ag12
ag12
ag12
ag12
ag12
ag12
ag12
ag12
ag12
ag12
ag12
ag12
ag12
ag12
ag12
ag12
ag12
ag12
ag12
ag12
ag12
ag12
ag12
ag12
ag12
ag12
ag12
ag12
ag12
ag12
ag12
ag12
ag12
ag12
ag12
ag12
ag12
ag12
ag12
ag12
ag12
ag12
ag12
ag12
ag12
ag12
ag12
ag12
ag12
ag12
ag12
ag12
ag12
ag12
ag12
ag12
ag12
ag12
ag12
ag12
ag12
ag12
ag12
ag12
ag12
ag12
ag12
ag12
ag12
ag12
ag12
ag12
ag12
ag12
ag12
ag12
ag12
ag12
ag12
ag12
ag12
ag12
ag12
ag12
ag12
ag12
ag12
ag12
ag12
ag12
ag12
ag12
ag12
ag12
ag12
ag12
ag12
ag12
ag12
ag12
ag12
ag12
ag12
ag12
ag12
ag12
ag12
ag12
ag12
ag12
ag12
ag12
ag12
ag12
ag12
ag12
ag12
ag12
ag12
ag12
ag12
ag12
ag12
ag12
ag12
ag12
ag12
ag12
ag12
ag12
ag12
ag12
ag12
ag12
ag12
ag12
ag12
ag12
ag12
ag12
ag12
ag12
ag12
ag12
ag12
ag12
ag12
ag12
ag12
ag12
ag12
ag12
ag12
ag12
ag12
ag12
ag12
ag12
ag12
ag12
ag12
ag12
ag12
ag12
ag12
ag12
ag12
ag12
ag12
ag12
ag12
ag12
ag12
ag12
ag12
ag12
ag12
ag12
ag12
ag12
ag12
ag12
ag12
ag12
ag12
ag12
ag12
ag12
ag12
ag12
ag12
ag12
ag12
ag12
ag12
ag12
ag12
ag12
ag12
ag12
ag12
ag12
ag12
ag12
ag12
ag12
ag12
ag12
ag12
ag12
ag12
ag12
ag12
ag12
ag12
ag12
ag12
ag12
ag12
ag12
ag12
ag12
ag12
ag12
ag12
ag12
ag12
ag12
ag12
ag12
ag12
ag12
ag12
ag12
ag12
ag12
ag12
ag12
ag12
ag12
ag12
ag12
ag12
ag12
ag12
ag12
ag12
ag12
ag12
ag12
ag12
ag12
ag12
ag12
ag12
ag12
ag12
ag12
ag12
ag12
ag12
ag12
ag12
ag12
ag12
ag12
ag12
ag12
ag12
ag12
ag12
ag12
ag12
ag12
ag12
ag12
ag12
ag12
ag12
ag12
ag12
ag12
ag12
ag12
ag12
ag12
ag12
ag12
ag12
ag12
ag12
ag12
ag12
ag12
ag12
ag12
ag12
ag12
ag12
ag12
ag12
ag12
ag12
ag12
ag12
ag12
ag12
ag12
ag12
ag12
ag12
ag12
ag12
ag12
ag12
ag12
ag12
ag12
ag12
ag12
ag12
ag12
ag12
ag12
ag12
ag12
ag12
ag12
ag12
ag12
ag12
ag12
ag12
ag12
ag12
ag12
ag12
ag12
ag12
ag12
ag12
ag12
ag12
ag12
ag12
ag12
ag12
ag12
ag12
ag12
ag12
ag12
ag12
ag12
ag12
ag12
ag12
ag12
ag12
ag12
ag12
ag12
ag12
ag12
ag12
ag12
ag12
ag12
ag12
ag12
ag12
ag12
ag12
ag12
ag12
ag12
ag12
ag12
ag12
ag12
ag12
ag12
ag12
ag12
ag12
ag12
ag12
ag12
ag12
ag12
ag12
ag12
ag12
ag12
ag12
ag12
ag12
ag12
ag12
ag12
ag12
ag12
ag12
ag12
ag12
ag12
ag12
ag12
ag12
ag12
ag12
ag12
ag12
ag12
ag12
ag12
ag12
ag12
ag12
ag12
ag12
ag12
ag12
ag12
ag12
ag12
ag12
ag12
ag12
ag12
ag12
ag12
ag12
ag12
ag12
ag12
ag12
ag12
ag12
ag12
ag12
ag12
ag12
ag12
ag12
ag12
ag12
ag12
ag12
ag12
ag12
ag12
ag12
ag12
ag12
ag12
ag12
ag12
ag12
ag12
ag12
ag12
ag12
ag12
ag12
ag12
ag12
ag12
ag12
ag12
ag12
ag12
ag12
ag12
ag12
ag12
ag12
ag12
ag12
ag12
ag12
ag12
ag12
ag12
ag12
ag12
ag12
ag12
ag12
ag12
ag12
ag12
ag12
ag12
ag12
ag12
ag12
ag12
ag12
ag12
ag12
ag12
ag12
ag12
ag12
ag12
ag12
ag12
ag12
ag12
ag12
ag12
ag12
ag12
ag12
ag12
ag12
ag12
ag12
ag12
ag12
ag12
ag12
ag12
ag12
ag12
ag12
ag12
ag12
ag12
ag12
ag12
ag12
ag12
ag12
ag12
ag12
ag12
ag12
ag12
ag12
ag12
ag12
ag12
ag12
ag12
ag12
ag12
ag12
ag12
ag12
ag12
ag12
ag12
ag12
ag12
ag12
ag12
ag12
ag12
ag12
ag12
ag12
ag12
ag12
ag12
ag12
ag12
ag12
ag12
ag12
ag12
ag12
ag12
ag12
ag12
ag12
ag12
ag12
ag12
ag12
ag12
ag12
ag12
ag12
ag12
ag12
ag12
ag12
ag12
ag12
ag12
ag12
ag12
ag12
ag12
ag12
ag12
ag12
ag12
ag12
ag12
ag12
ag12
ag12
ag12
ag12
ag12
ag12
ag12
ag12
ag12
ag12
ag12
ag12
ag12
ag12
ag12
ag12
ag12
ag12
ag12
ag12
ag12
ag12
ag12
ag12
ag12
ag12
ag12
ag12
ag12
ag12
ag12
ag12
ag12
ag12
ag12
ag12
ag12
ag12
ag12
ag12
ag12
ag12
ag12
ag12
ag12
ag12
ag12
ag12
ag12
ag12
ag12
ag12
ag12
ag12
ag12
ag12
ag12
ag12
ag12
ag12
ag12
ag12
ag12
ag12
ag12
ag12
ag12
ag12
ag12
ag12
ag12
ag12
ag12
ag12
ag12
ag12
ag12
ag12
ag12
ag12
ag12
ag12
ag12
ag12
ag12
ag12
ag12
ag12
ag12
ag12
ag12
ag12
ag12
ag12
ag12
ag12
ag12
ag12
ag12
ag12
ag12
ag12
ag12
ag12
ag12
ag12
ag12
ag12
ag12
ag12
ag12
ag12
ag12
ag12
ag12
ag12
ag12
ag12
ag12
ag12
ag12
ag12
ag12
ag12
ag12
ag12
ag12
ag12
ag12
ag12
ag12
ag12
ag12
ag12
ag12
ag12
ag12
ag12
ag12
ag12
ag12
ag12
ag12
ag12
ag12
ag12
ag12
ag12
ag12
ag12
ag12
ag12
ag12
ag12
ag12
ag12
ag12
ag12
ag12
ag12
ag12
ag12
ag12
ag12
ag12
ag12
ag12
ag12
ag12
ag12
ag12
ag12
ag12
ag12
ag12
ag12
ag12
ag12
ag12
ag12
ag12
ag12
ag12
ag12
ag12
ag12
ag12
ag12
ag12
ag12
ag12
ag12
ag12
ag12
ag12
ag12
ag12
ag12
ag12
ag12
ag12
ag12
ag12
ag12
ag12
ag12
ag12
ag12
ag12
ag12
ag12
ag12
ag12
ag12
ag12
ag12
ag12
ag12
ag12
ag12
ag12
ag12
ag12
ag12
ag12
ag12
ag12
ag12
ag12
ag12
ag12
ag12
ag12
ag12
ag12
ag12
ag12
ag12
ag12
ag12
ag12
ag12
ag12
ag12
ag12
ag12
ag12
ag12
ag12
ag12
ag12
ag12
ag12
ag12
ag12
ag12
ag12
ag12
ag12
ag12
ag12
ag12
ag12
ag12
ag12
ag12
ag12
ag12
ag12
ag12
ag12
ag12
ag12
ag12
ag12
ag12
ag12
ag12
ag12
ag12
ag12
ag12
ag12
ag12
ag12
ag12
ag12
ag12
ag12
ag12
ag12
ag12
ag12
ag12
ag12
ag12
ag12
ag12
ag12
ag12
ag12
ag12
ag12
ag12
ag12
ag12
ag12
ag12
ag12
ag12
ag12
ag12
ag12
ag12
ag12
ag12
ag12
ag12
ag12
ag12
ag12
ag12
ag12
ag12
ag12
ag12
ag12
ag12
ag12
ag12
ag12
ag12
ag12
ag12
ag12
ag12
ag12
ag12
ag12
ag12
ag12
ag12
ag12
ag12
ag12
ag12
ag12
ag12
ag12
ag12
ag12
ag12
ag12
ag12
ag12
ag12
ag12
ag12
ag12
ag12
ag12
ag12
ag12
ag12
ag12
ag12
ag12
ag12
ag12
ag12
ag12
ag12
ag12
ag12
ag12
ag12
ag12
ag12
ag12
ag12
ag12
ag12
ag12
ag12
ag12
ag12
ag12
ag12
ag12
ag12
ag12
ag12
ag12
ag12
ag12
ag12
ag12
ag12
ag12
ag12
ag12
ag12
ag12
ag12
ag12
ag12
ag12
ag12
ag12
ag12
ag12
ag12
ag12
ag12
ag12
ag12
ag12
ag12
ag12
ag12
ag12
ag12
ag12
ag12
ag12
ag12
ag12
ag12
ag12
ag12
ag12
ag12
ag12
ag12
ag12
ag12
ag12
ag12
ag12
ag12
ag12
ag12
ag12
ag12
ag12
ag12
ag12
ag12
ag12
ag12
ag12
ag12
ag12
ag12
ag12
ag12
ag12
ag12
ag12
ag12
ag12
ag12
ag12
ag12
ag12
ag12
ag12
ag12
ag12
ag12
ag12
ag12
ag12
ag12
ag12
ag12
ag12
ag12
ag12
ag12
ag12
ag12
ag12
ag12
ag12
ag12
ag12
ag12
ag12
ag12
ag12
ag12
ag12
ag12
ag12
ag12
ag12
ag12
ag12
ag12
ag12
ag12
ag12
ag12
ag12
ag12
ag12
ag12
ag12
ag12
ag12
ag12
ag12
ag12
ag12
ag12
ag12
ag12
ag12
ag12
ag12
ag12
ag12
ag12
ag12
ag12
ag12
ag12
ag12
ag12
ag12
ag12
ag12
ag12
ag12
ag12
ag12
ag12
ag12
ag12
ag12
ag12
ag12
ag12
ag12
ag12
ag12
ag12
ag12
ag12
ag12
ag12
ag12
ag12
ag12
ag12
ag12
ag12
ag12
ag12
ag12
ag12
ag12
ag12
ag12
ag12
ag12
ag12
ag12
ag12
ag12
ag12
ag12
ag12
ag12
ag12
ag12
ag12
ag12
ag12
ag12
ag12
ag12
ag12
ag12
ag12
ag12
ag12
ag12
ag12
ag12
ag12
ag12
ag12
ag12
ag12
ag12
ag12
ag12
ag12
ag12
ag12
ag12
ag12
ag12
ag12
ag12
ag12
ag12
ag12
ag12
ag12
ag12
ag12
ag12
ag12
ag12
ag12
ag12
ag12
ag12
ag12
ag12
ag12
ag12
ag12
ag12
ag12
ag12
ag12
ag12
ag12
ag12
ag12
ag12
ag12
ag12
ag12
ag12
ag12
ag12
ag12
ag12
ag12
ag12
ag12
ag12
ag12
ag12
ag12
ag12
ag12
ag12
ag12
ag12
ag12
ag12
ag12
ag12
ag12
ag12
ag12
ag12
ag12
ag12
ag12
ag12
ag12
ag12
ag12
ag12
ag12
ag12
ag12
ag12
ag12
ag12
ag12
ag12
ag12
ag12
ag12
ag12
ag12
ag12
ag12
ag12
ag12
ag12
ag12
ag12
ag12
ag12
ag12
ag12
ag12
ag12
ag12
ag12
ag12
ag12
ag12
ag12
ag12
ag12
ag12
ag12
ag12
ag12
ag12
ag12
ag12
ag12
ag12
ag12
ag12
ag12
ag12
ag12
ag12
ag12
ag12
ag12
ag12
ag12
ag12
ag12
ag12
ag12
ag12
ag12
ag12
ag12
ag12
ag12
ag12
ag12
ag12
ag12
ag12
ag12
ag12
ag12
ag12
ag12
ag12
ag12
ag12
ag12
ag12
ag12
ag12
ag12
ag12
ag12
ag12
ag12
ag12
ag12
ag12
ag12
ag12
ag12
ag12
ag12
ag12
ag12
ag12
ag12
ag12
ag12
ag12
ag12
ag12
ag12
ag12
ag12
ag12
ag12
ag12
ag12
ag12
ag12
ag12
ag12
ag12
ag12
ag12
ag12
ag12
ag12
ag12
ag12
ag12
ag12
ag12
ag12
ag12
ag12
ag12
ag12
ag12
ag12
ag12
ag12
ag12
ag12
ag12
ag12
ag12
ag12
ag12
ag12
ag12
ag12
ag12
ag12
ag12
ag12
ag12
ag12
ag12
ag12
ag12
ag12
ag12
ag12
ag12
ag12
ag12
ag12
ag12
ag12
ag12
ag12
ag12
ag12
ag12
ag12
ag12
ag12
ag12
ag12
ag12
ag12
ag12
ag12
ag12
ag12
ag12
ag12
ag12
ag12
ag12
ag12
ag12
ag12
ag12
ag12
ag12
ag12
ag12
ag12
ag12
ag12
ag12
ag12
ag12
ag12
ag12
ag12
ag12
ag12
ag12
ag12
ag12
ag12
ag12
ag12
ag12
ag12
ag12
ag12
ag12
ag12
ag12
ag12
ag12
ag12
ag12
ag12
ag12
ag12
ag12
ag12
ag12
ag12
ag12
ag12
ag12
ag12
ag12
ag12
ag12
ag12
ag12
ag12
ag12
ag12
ag12
ag12
ag12
ag12
ag12
ag12
ag12
ag12
ag12
ag12
ag12
ag12
ag12
ag12
ag12
ag12
ag12
ag12
ag12
ag12
ag12
ag12
ag12
ag12
ag12
ag12
ag12
ag12
ag12
ag12
ag12
ag12
ag12
ag12
ag12
ag12
ag12
ag12
ag12
ag12
ag12
ag12
ag12
ag12
ag12
ag12
ag12
ag12
ag12
ag12
ag12
ag12
ag12
ag12
ag12
ag12
ag12
ag12
ag12
ag12
ag12
ag12
ag12
ag12
ag12
ag12
ag12
ag12
ag12
ag12
ag12
ag12
ag12
ag12
ag12
ag12
ag12
ag12
ag12
ag12
ag12
ag12
ag12
ag12
ag12
ag12
ag12
ag12
ag12
ag12
ag12
ag12
ag12
ag12
ag12
ag12
ag12
ag12
ag12
ag12
ag12
ag12
ag12
ag12
ag12
ag12
ag12
ag12
ag12
ag12
ag12
ag12
ag12
ag12
ag12
ag12
ag12
ag12
ag12
ag12
ag12
ag12
ag12
ag12
ag12
ag12
ag12
ag12
ag12
ag12
ag12
ag12
ag12
ag12
ag12
ag12
ag12
ag12
ag12
ag12
ag12
ag12
ag12
ag12
ag12
ag12
ag12
ag12
ag12
ag12
ag12
ag12
ag12
ag12
ag12
ag12
ag12
ag12
ag12
ag12
ag12
ag12
ag12
ag12
ag12
ag12
ag12
ag12
ag12
ag12
ag12
ag12
ag12
ag12
ag12
ag12
ag12
ag12
ag12
ag12
ag12
ag12
ag12
ag12
ag12
ag12
ag12
ag12
ag12
ag12
ag12
ag12
ag12
ag12
ag12
ag12
ag12
ag12
ag12
ag12
ag12
ag12
ag12
ag12
ag12
ag12
ag12
ag12
ag12
ag12
ag12
ag12
ag12
ag12
ag12
ag12
ag12
ag12
ag12
ag12
ag12
ag12
ag12
ag12
ag12
ag12
ag12
ag12
ag12
ag12
ag12
ag12
ag12
ag12
ag12
ag12
ag12
ag12
ag12
ag12
ag12
ag12
ag12
ag12
ag12
ag12
ag12
ag12
ag12
ag12
ag12
ag12
ag12
ag12
ag12
ag12
ag12
ag12
ag12
ag12
ag12
ag12
ag12
ag12
ag12
ag12
ag12
ag12
ag12
ag12
ag12
ag12
ag12
ag12
ag12
ag12
ag12
ag12
ag12
ag12
ag12
ag12
ag12
ag12
ag12
ag12
ag12
ag12
ag12
ag12
ag12
ag12
ag12
ag12
ag12
ag12
ag12
ag12
ag12
ag12
ag12
ag12
ag12
ag12
ag12
ag12
ag12
ag12
ag12
ag12
ag12
ag12
ag12
ag12
ag12
ag12
ag12
ag12
ag12
ag12
ag12
ag12
ag12
ag12
ag12
ag12
ag12
ag12
ag12
ag12
ag12
ag12
ag12
ag12
ag12
ag12
ag12
ag12
ag12
ag12
ag12
ag12
ag12
ag12
ag12
ag12
ag12
ag12
ag12
ag12
ag12
ag12
ag12
ag12
ag12
ag12
ag12
ag12
ag12
ag12
ag12
ag12
ag12
ag12
ag12
ag12
ag12
ag12
ag12
ag12
ag12
ag12
ag12
ag12
ag12
ag12
ag12
ag12
ag12
ag12
ag12
ag12
ag12
ag12
ag12
ag12
ag12
ag12
ag12
ag12
ag12
ag12
ag12
ag12
ag12
ag12
ag12
ag12
ag12
ag12
ag12
ag12
ag12
ag12
ag12
ag12
ag12
ag12
ag12
ag12
ag12
ag12
ag12
ag12
ag12
ag12
ag12
ag12
ag12
ag12
ag12
ag12
ag12
ag12
ag12
ag12
ag12
ag12
ag12
ag12
ag12
ag12
ag12
ag12
ag12
ag12
ag12
ag12
ag12
ag12
ag12
ag12
ag12
ag12
ag12
ag12
ag12
ag12
ag12
ag12
ag12
ag12
ag12
ag12
ag12
ag12
ag12
ag12
ag12
ag12
ag12
ag12
ag12
ag12
ag12
ag12
ag12
ag12
ag12
ag12
ag12
ag12
ag12
ag12
ag12
ag12
ag12
ag12
ag12
ag12
ag12
ag12
ag12
ag12
ag12
ag12
ag12
ag12
ag12
ag12
ag12
ag12
ag12
ag12
ag12
ag12
ag12
ag12
ag12
ag12
ag12
ag12
ag12
ag12
ag12
ag12
ag12
ag12
ag12
ag12
ag12
ag12
ag12
ag12
ag12
ag12
ag12
ag12
ag12
ag12
ag12
ag12
ag12
ag12
ag12
ag12
ag12
ag12
ag12
ag12
ag12
ag12
ag12
ag12
ag12
ag12
ag12
ag12
ag12
ag12
ag12
ag12
ag12
ag12
ag12
ag12
ag12
ag12
ag12
ag12
ag12
ag12
ag12
ag12
ag12
ag12
ag12
ag12
ag12
ag12
ag12
ag12
ag12
ag12
ag12
ag12
ag12
ag12
ag12
ag12
ag12
ag12
ag12
ag12
ag12
ag12
ag12
ag12
ag12
ag12
ag12
ag12
ag12
ag12
ag12
ag12
ag12
ag12
ag12
ag12
ag12
ag12
ag12
ag12
ag12
ag12
ag12
ag12
ag12
ag12
ag12
ag12
ag12
ag12
ag12
ag12
ag12
ag12
ag12
ag12
ag12
ag12
ag12
ag12
ag12
ag12
ag12
ag12
ag12
ag12
ag12
ag12
ag12
ag12
ag12
ag12
ag12
ag12
ag12
ag12
ag12
ag12
ag12
ag12
ag12
ag12
ag12
ag12
ag12
ag12
ag12
ag12
ag12
ag12
ag12
ag12
ag12
ag12
ag12
ag12
ag12
ag12
ag12
ag12
ag12
ag12
ag12
ag12
ag12
ag12
ag12
ag12
ag12
ag12
ag12
ag12
ag12
ag12
ag12
ag12
ag12
ag12
ag12
ag12
ag12
ag12
ag12
ag12
ag12
ag12
ag12
ag12
ag12
ag12
ag12
ag12
ag12
ag12
ag12
ag12
ag12
ag12
ag12
ag12
ag12
ag12
ag12
ag12
ag12
ag12
ag12
ag12
ag12
ag12
ag12
ag12
ag12
ag12
ag12
ag12
ag12
ag12
ag12
ag12
ag12
ag12
ag12
ag12
ag12
ag12
ag12
ag12
ag12
ag12
ag12
ag12
ag12
ag12
ag12
ag12
ag12
ag12
ag12
ag12
ag12
ag12
ag12
ag12
ag12
ag12
ag12
ag12
ag12
ag12
ag12
ag12
ag12
ag12
ag12
ag12
ag12
ag12
ag12
ag12
ag12
ag12
ag12
ag12
ag12
ag12
ag12
ag12
ag12
ag12
ag12
ag12
ag12
ag12
ag12
ag12
ag12
ag12
ag12
ag12
ag12
ag12
ag12
ag12
ag12
ag12
ag12
ag12
ag12
ag12
ag12
ag12
ag12
ag12
ag12
ag12
ag12
ag12
ag12
ag12
ag12
ag12
ag12
ag12
ag12
ag12
ag12
ag12
ag12
ag12
ag12
ag12
ag12
ag12
ag12
ag12
ag12
ag12
ag12
ag12
ag12
ag12
ag12
ag12
ag12
ag12
ag12
ag12
ag12
ag12
ag12
ag12
ag12
ag12
ag12
ag12
ag12
ag12
ag12
ag12
ag12
ag12
ag12
ag12
ag12
ag12
ag12
ag12
ag12
ag12
ag12
ag12
ag12
ag12
ag12
ag12
ag12
ag12
ag12
ag12
ag12
ag12
ag12
ag12
ag12
ag12
ag12
ag12
ag12
ag12
ag12
ag12
ag12
ag12
ag12
ag12
ag12
ag12
ag12
ag12
ag12
ag12
ag12
ag12
ag12
ag12
ag12
ag12
ag12
ag12
ag12
ag12
ag12
ag12
ag12
ag12
ag12
ag12
ag12
ag12
ag12
ag12
ag12
ag12
ag12
ag12
ag12
ag12
ag12
ag12
ag12
ag12
ag12
ag12
ag12
ag12
ag12
ag12
ag12
ag12
ag12
ag12
ag12
ag12
ag12
ag12
ag12
ag12
ag12
ag12
ag12
ag12
ag12
ag12
ag12
ag12
ag12
ag12
ag12
ag12
ag12
ag12
ag12
ag12
ag12
ag12
ag12
ag12
ag12
ag12
ag12
ag12
ag12
ag12
ag12
ag12
ag12
ag12
ag12
ag12
ag12
ag12
ag12
ag12
ag12
ag12
ag12
ag12
ag12
ag12
ag12
ag12
ag12
ag12
ag12
ag12
ag12
ag12
ag12
ag12
ag12
ag12
ag12
ag12
ag12
ag12
ag12
ag12
ag12
ag12
ag12
ag12
ag12
ag12
ag12
ag12
ag12
ag12
ag12
ag12
ag12
ag12
ag12
ag12
ag12
ag12
ag12
ag12
ag12
ag12
ag12
ag12
ag12
ag12
ag12
ag12
ag12
ag12
ag12
ag12
ag12
ag12
ag12
ag12
ag12
ag12
ag12
ag12
ag12
ag12
ag12
ag12
ag12
ag12
ag12
ag12
ag12
ag12
ag12
ag12
ag12
ag12
ag12
ag12
ag12
ag12
ag12
ag12
ag12
ag12
ag12
ag12
ag12
ag12
ag12
ag12
ag12
ag12
ag12
ag12
ag12
ag12
ag12
ag12
ag12
ag12
ag12
ag12
ag12
ag12
ag12
ag12
ag12
ag12
ag12
ag12
ag12
ag12
ag12
ag12
ag12
ag12
ag12
ag12
ag12
ag12
ag12
ag12
ag12
ag12
ag12
ag12
ag12
ag12
ag12
ag12
ag12
ag12
ag12
ag12
ag12
ag12
ag12
ag12
ag12
ag12
ag12
ag12
ag12
ag12
ag12
ag12
ag12
ag12
ag12
ag12
ag12
ag12
ag12
ag12
ag12
ag12
ag12
ag12
ag12
ag12
ag12
ag12
ag12
ag12
ag12
ag12
ag12
ag12
ag12
ag12
ag12
ag12
ag12
ag12
ag12
ag12
ag12
ag12
ag12
ag12
ag12
ag12
ag12
ag12
ag12
ag12
ag12
ag12
ag12
ag12
ag12
ag12
ag12
ag12
ag12
ag12
ag12
ag12
ag12
ag12
ag12
ag12
ag12
ag12
ag12
ag12
ag12
ag12
ag12
ag12
ag12
ag12
ag12
ag12
ag12
ag12
ag12
ag12
ag12
ag12
ag12
ag12
ag12
ag12
ag12
ag12
ag12
ag12
ag12
ag12
ag12
ag12
ag12
ag12
ag12
ag12
ag12
ag12
ag12
ag12
ag12
ag12
ag12
ag12
ag12
ag12
ag12
ag12
ag12
ag12
ag12
ag12
ag12
ag12
ag12
ag12
ag12
ag12
ag12
ag12
ag12
ag12
ag12
ag12
ag12
ag12
ag12
ag12
ag12
ag12
ag12
ag12
ag12
ag12
ag12
ag12
ag12
ag12
ag12
ag12
ag12
ag12
ag12
ag12
ag12
ag12
ag12
ag12
ag12
ag12
ag12
ag12
ag12
ag12
ag12
ag12
ag12
ag12
ag12
ag12
ag12
ag12
ag12
ag12
ag12
ag12
ag12
ag12
ag12
ag12
ag12
ag12
ag12
ag12
ag12
ag12
ag12
ag12
ag12
ag12
ag12
ag12
ag12
ag12
ag12
ag12
ag12
ag12
ag12
ag12
ag12
ag12
ag12
ag12
ag12
ag12
ag12
ag12
ag12
ag12
ag12
ag12
ag12
ag12
ag12
ag12
ag12
ag12
ag12
ag12
ag12
ag12
ag12
ag12
ag12
ag12
ag12
ag12
ag12
ag12
ag12
ag12
ag12
ag12
ag12
ag12
ag12
ag12
ag12
ag12
ag12
ag12
ag12
ag12
ag12
ag12
ag12
ag12
ag12
ag12
ag12
ag12
ag12
ag12
ag12
ag12
ag12
ag12
ag12
ag12
ag12
ag12
ag12
ag12
ag12
ag12
ag12
ag12
ag12
ag12
ag12
ag12
ag12
ag12
ag12
ag12
ag12
ag12
ag12
ag12
ag12
ag12
ag12
ag12
ag12
ag12
ag12
ag12
ag12
ag12
ag12
ag12
ag12
ag12
ag12
ag12
ag12
ag12
ag12
ag12
ag12
ag12
ag12
ag12
ag12
ag12
ag12
ag12
ag12
ag12
ag12
ag12
ag12
ag12
ag12
ag12
ag12
ag12
ag12
ag12
ag12
ag12
ag12
ag12
ag12
ag12
ag12
ag12
ag12
ag12
ag12
ag12
ag12
ag12
ag12
ag12
ag12
ag12
ag12
ag12
ag12
ag12
ag12
ag12
ag12
ag12
ag12
ag12
ag12
ag12
ag12
ag12
ag12
ag12
ag12
ag12
ag12
ag12
ag12
ag12
ag12
ag12
ag12
ag12
ag12
ag12
ag12
ag12
ag12
ag12
ag12
ag12
ag12
ag12
ag12
ag12
ag12
ag12
ag12
ag12
ag12
ag12
ag12
ag12
ag12
ag12
ag12
ag12
ag12
ag12
ag12
ag12
ag12
ag12
ag12
ag12
ag12
ag12
ag12
ag12
ag12
ag12
ag12
ag12
ag12
ag12
ag12
ag12
ag12
ag12
ag12
ag12
ag12
ag12
ag12
ag12
ag12
ag12
ag12
ag12
ag12
ag12
ag12
ag12
ag12
ag12
ag12
ag12
ag12
ag12
ag12
ag12
ag12
ag12
ag12
ag12
ag12
ag12
ag12
ag12
ag12
ag12
ag12
ag12
ag12
ag12
ag12
ag12
ag12
ag12
ag12
ag12
ag12
ag12
ag12
ag12
ag12
ag12
ag12
ag12
ag12
ag12
ag12
ag12
ag12
ag12
ag12
ag12
ag12
ag12
ag12
ag12
ag12
ag12
ag12
ag12
ag12
ag12
ag12
ag12
ag12
ag12
ag12
ag12
ag12
ag12
ag12
ag12
ag12
ag12
ag12
ag12
ag12
ag12
ag12
ag12
ag12
ag12
ag12
ag12
ag12
ag12
ag12
ag12
ag12
ag12
ag12
ag12
ag12
ag12
ag12
ag12
ag12
ag12
ag12
ag12
ag12
ag12
ag12
ag12
ag12
ag12
ag12
ag12
ag12
ag12
ag12
ag12
ag12
ag12
ag12
ag12
ag12
ag12
ag12
ag12
ag12
ag12
ag12
ag12
ag12
ag12
ag12
ag12
ag12
ag12
ag12
ag12
ag12
ag12
ag12
ag12
ag12
ag12
ag12
ag12
ag12
ag12
ag12
ag12
ag12
ag12
ag12
ag12
ag12
ag12
ag12
ag12
ag12
ag12
ag12
ag12
ag12
ag12
ag12
ag12
ag12
ag12
ag12
ag12
ag12
ag12
ag12
ag12
ag12
ag12
ag12
ag12
ag12
ag12
ag12
ag12
ag12
ag12
ag12
ag12
ag12
ag12
ag12
ag12
ag12
ag12
ag12
ag12
ag12
ag12
ag12
ag12
ag12
ag12
ag12
ag12
ag12
ag12
ag12
ag12
ag12
ag12
ag12
ag12
ag12
ag12
ag12
ag12
ag12
ag12
ag12
ag12
ag12
ag12
ag12
ag12
ag12
ag12
ag12
ag12
ag12
ag12
ag12
ag12
ag12
ag12
ag12
ag12
ag12
ag12
ag12
ag12
ag12
ag12
ag12
ag12
ag12
ag12
ag12
ag12
ag12
ag12
ag12
ag12
ag12
ag12
ag12
ag12
ag12
ag12
ag12
ag12
ag12
ag12
ag12
ag12
ag12
ag12
ag12
ag12
ag12
ag12
ag12
ag12
ag12
ag12
ag12
ag12
atp13
Rp14
(dp15
S'tiles'
p16
(dp17
sS'rows'
p18
I46
sS'squares'
p19
(dp20
sS'cols'
p21
I80
sbssS'dungeons'
p22
(dp23
S'main'
p24
(lp25
g0
(cdungeonproperties
DungeonNode
p26
g2
Ntp27
Rp28
(dp29
S'danger_level'
p30
I0
sS'randomize'
p31
I01
sS'tilemap_handle'
p32
NsS'passageways'
p33
(dp34
S'ds'
p35
S'down'
p36
sS'us'
p37
S'up'
p38
ssbassb.