(dp0
S'mountain'
p1
ccopy_reg
_reconstructor
p2
(ctile
Tile
p3
c__builtin__
object
p4
Ntp5
Rp6
(dp7
S'destroyable'
p8
I00
sS'memory_ch'
p9
g2
(cchar
Char
p10
g4
Ntp11
Rp12
(dp13
S'color'
p14
I2097408
sS'symbol'
p15
S'^'
p16
sbsS'name'
p17
S'Mountains'
p18
sS'passable'
p19
I00
sS'see_through'
p20
I01
sS'visible_ch'
p21
g2
(g10
g4
Ntp22
Rp23
(dp24
g14
I2097408
sg15
S'^'
p25
sbsbsS'swamp'
p26
g2
(g3
g4
Ntp27
Rp28
(dp29
g8
I00
sg9
g2
(g10
g4
Ntp30
Rp31
(dp32
S'color'
p33
I2097408
sS'symbol'
p34
S'k'
p35
sbsg17
S'Swamp'
p36
sg19
I01
sg20
I01
sg21
g2
(g10
g4
Ntp37
Rp38
(dp39
g14
I768
sg15
S'"'
p40
sbsbsS'hills'
p41
g2
(g3
g4
Ntp42
Rp43
(dp44
g8
I00
sg9
g2
(g10
g4
Ntp45
Rp46
(dp47
g14
I1049600
sg15
S'~'
p48
sbsg17
S'Hills'
p49
sg19
I01
sg20
I01
sg21
g2
(g10
g4
Ntp50
Rp51
(dp52
g14
I1049600
sg15
S'~'
p53
sbsbsS'f'
p54
g2
(g3
g4
Ntp55
Rp56
(dp57
S'destroyable'
p58
I00
sS'memory_ch'
p59
g2
(g10
g4
Ntp60
Rp61
(dp62
S'color'
p63
I0
sS'symbol'
p64
S'.'
p65
sbsS'name'
p66
S'Dungeon floor'
p67
sS'passable'
p68
I01
sS'see_through'
p69
I01
sS'visible_ch'
p70
g2
(g10
g4
Ntp71
Rp72
(dp73
g63
I0
sg64
S'.'
p74
sbsbsS'us'
p75
g2
(g3
g4
Ntp76
Rp77
(dp78
g58
I01
sg59
g2
(g10
g4
Ntp79
Rp80
(dp81
S'color'
p82
I2097408
sS'symbol'
p83
S'<'
p84
sbsg66
S'Up staircase'
p85
sg68
I01
sg69
I01
sg70
g2
(g10
g4
Ntp86
Rp87
(dp88
S'color'
p89
I512
sS'symbol'
p90
S'<'
p91
sbsbsS'high_mountain'
p92
g2
(g3
g4
Ntp93
Rp94
(dp95
g8
I00
sg9
g2
(g10
g4
Ntp96
Rp97
(dp98
g14
I2097152
sg15
S'^'
p99
sbsg17
S'High mountains'
p100
sg19
I00
sg20
I00
sg21
g2
(g10
g4
Ntp101
Rp102
(dp103
g14
I2097152
sg15
S'^'
p104
sbsbsS'plains'
p105
g2
(g3
g4
Ntp106
Rp107
(dp108
g8
I00
sg9
g2
(g10
g4
Ntp109
Rp110
(dp111
g14
I2097920
sg15
S'"'
p112
sbsg17
S'Plains'
p113
sg19
I01
sg20
I01
sg21
g2
(g10
g4
Ntp114
Rp115
(dp116
g14
I2097920
sg15
S'"'
p117
sbsbsS'r'
p118
g2
(g3
g4
Ntp119
Rp120
(dp121
g58
I01
sg59
g2
(g10
g4
Ntp122
Rp123
(dp124
g82
I2097408
sg83
S'#'
p125
sbsg66
S'Granite rock'
p126
sg68
I00
sg69
I00
sg70
g2
(g10
g4
Ntp127
Rp128
(dp129
g82
I2097408
sg83
S'#'
p130
sbsbsS'u'
p131
g2
(g3
g4
Ntp132
Rp133
(dp134
g58
I00
sg59
g2
(g10
g4
Ntp135
Rp136
(dp137
S'color'
p138
I0
sS'symbol'
p139
S' '
p140
sbsg66
S'You have not seen this place yet'
p141
sg68
I00
sg69
I00
sg70
g2
(g10
g4
Ntp142
Rp143
(dp144
g138
I0
sg139
S' '
p145
sbsbsS'forest'
p146
g2
(g3
g4
Ntp147
Rp148
(dp149
g8
I00
sg9
g2
(g10
g4
Ntp150
Rp151
(dp152
g14
I768
sg15
S'&'
p153
sbsg17
S'Forest'
p154
sg19
I01
sg20
I01
sg21
g2
(g10
g4
Ntp155
Rp156
(dp157
g14
I768
sg15
S'&'
p158
sbsbsS'w'
p159
g2
(g3
g4
Ntp160
Rp161
(dp162
g58
I01
sg59
g2
(g10
g4
Ntp163
Rp164
(dp165
g82
I2097408
sg83
S'#'
p166
sbsg66
S'Wall'
p167
sg68
I00
sg69
I00
sg70
g2
(g10
g4
Ntp168
Rp169
(dp170
g82
I1049600
sg83
S'#'
p171
sbsbsS'river'
p172
g2
(g3
g4
Ntp173
Rp174
(dp175
g8
I00
sg9
g2
(g10
g4
Ntp176
Rp177
(dp178
g14
I1280
sg15
S'='
p179
sbsg17
S'River'
p180
sg19
I00
sg20
I00
sg21
g2
(g10
g4
Ntp181
Rp182
(dp183
g14
I1280
sg15
S'='
p184
sbsbsS'ds'
p185
g2
(g3
g4
Ntp186
Rp187
(dp188
g58
I00
sg59
g2
(g10
g4
Ntp189
Rp190
(dp191
g82
I2097408
sg83
S'>'
p192
sbsg66
S'Down staircase'
p193
sg68
I01
sg69
I01
sg70
g2
(g10
g4
Ntp194
Rp195
(dp196
g82
I512
sg83
S'>'
p197
sbsbsS'road'
p198
g2
(g3
g4
Ntp199
Rp200
(dp201
g8
I00
sg9
g2
(g10
g4
Ntp202
Rp203
(dp204
g14
I1049600
sg15
S'.'
p205
sbsg17
S'A derelict road'
p206
sg19
I01
sg20
I01
sg21
g2
(g10
g4
Ntp207
Rp208
(dp209
g14
I1049600
sg15
S'.'
p210
sbsbs.