(dp1
S'mountain'
p2
ccopy_reg
_reconstructor
p3
(ctile
Tile
p4
c__builtin__
object
p5
NtRp6
(dp7
S'name'
p8
S'Mountains'
p9
sS'see_through'
p10
I01
sS'destroyable'
p11
I00
sS'memory_ch'
p12
g3
(cchar
Char
p13
g5
NtRp14
(dp15
S'color'
p16
I2097408
sS'symbol'
p17
S'^'
sbsS'passable'
p18
I00
sS'visible_ch'
p19
g3
(g13
g5
NtRp20
(dp21
g16
I2097408
sg17
S'^'
sbsbsS'plains'
p22
g3
(g4
g5
NtRp23
(dp24
g8
S'Plains'
p25
sg10
I01
sg11
I00
sg12
g3
(g13
g5
NtRp26
(dp27
g16
I2097920
sg17
S'"'
sbsg18
I01
sg19
g3
(g13
g5
NtRp28
(dp29
g16
I2097920
sg17
S'"'
sbsbsS'hills'
p30
g3
(g4
g5
NtRp31
(dp32
g8
S'Hills'
p33
sg10
I01
sg11
I00
sg12
g3
(g13
g5
NtRp34
(dp35
g16
I1049600
sg17
S'~'
sbsg18
I01
sg19
g3
(g13
g5
NtRp36
(dp37
g16
I1049600
sg17
S'~'
sbsbsS'f'
g3
(g4
g5
NtRp38
(dp39
S'name'
p40
S'Dungeon floor'
p41
sS'see_through'
p42
I01
sS'destroyable'
p43
I00
sS'memory_ch'
p44
g3
(g13
g5
NtRp45
(dp46
S'color'
p47
I0
sS'symbol'
p48
S'.'
sbsS'passable'
p49
I01
sS'visible_ch'
p50
g3
(g13
g5
NtRp51
(dp52
g47
I0
sg48
S'.'
sbsbsS'us'
p53
g3
(g4
g5
NtRp54
(dp55
g40
S'Up staircase'
p56
sg42
I01
sg43
I01
sg44
g3
(g13
g5
NtRp57
(dp58
S'color'
p59
I2097408
sS'symbol'
p60
S'<'
sbsg49
I01
sg50
g3
(g13
g5
NtRp61
(dp62
S'color'
p63
I512
sS'symbol'
p64
S'<'
sbsbsS'high_mountain'
p65
g3
(g4
g5
NtRp66
(dp67
g8
S'High mountains'
p68
sg10
I00
sg11
I00
sg12
g3
(g13
g5
NtRp69
(dp70
g16
I2097152
sg17
S'^'
sbsg18
I00
sg19
g3
(g13
g5
NtRp71
(dp72
g16
I2097152
sg17
S'^'
sbsbsS'swamp'
p73
g3
(g4
g5
NtRp74
(dp75
g8
S'Swamp'
p76
sg10
I01
sg11
I00
sg12
g3
(g13
g5
NtRp77
(dp78
g16
I768
sg17
S'"'
sbsg18
I01
sg19
g3
(g13
g5
NtRp79
(dp80
g16
I768
sg17
S'"'
sbsbsS'r'
g3
(g4
g5
NtRp81
(dp82
g40
S'Granite rock'
p83
sg42
I00
sg43
I01
sg44
g3
(g13
g5
NtRp84
(dp85
g59
I2097408
sg60
S'#'
sbsg49
I00
sg50
g3
(g13
g5
NtRp86
(dp87
g59
I2097408
sg60
S'#'
sbsbsS'u'
g3
(g4
g5
NtRp88
(dp89
g40
S'You have not seen this place yet'
p90
sg42
I00
sg43
I00
sg44
g3
(g13
g5
NtRp91
(dp92
S'color'
p93
I0
sS'symbol'
p94
S' '
sbsg49
I00
sg50
g3
(g13
g5
NtRp95
(dp96
g93
I0
sg94
S' '
sbsbsS'forest'
p97
g3
(g4
g5
NtRp98
(dp99
g8
S'Forest'
p100
sg10
I01
sg11
I00
sg12
g3
(g13
g5
NtRp101
(dp102
g16
I768
sg17
S'&'
sbsg18
I01
sg19
g3
(g13
g5
NtRp103
(dp104
g16
I768
sg17
S'&'
sbsbsS'w'
g3
(g4
g5
NtRp105
(dp106
g40
S'Wall'
p107
sg42
I00
sg43
I01
sg44
g3
(g13
g5
NtRp108
(dp109
g59
I2097408
sg60
S'#'
sbsg49
I00
sg50
g3
(g13
g5
NtRp110
(dp111
g59
I1049600
sg60
S'#'
sbsbsS'river'
p112
g3
(g4
g5
NtRp113
(dp114
g8
S'River'
p115
sg10
I00
sg11
I00
sg12
g3
(g13
g5
NtRp116
(dp117
g16
I1280
sg17
S'='
sbsg18
I00
sg19
g3
(g13
g5
NtRp118
(dp119
g16
I1280
sg17
S'='
sbsbsS'ds'
p120
g3
(g4
g5
NtRp121
(dp122
g40
S'Down staircase'
p123
sg42
I01
sg43
I00
sg44
g3
(g13
g5
NtRp124
(dp125
g59
I2097408
sg60
S'>'
sbsg49
I01
sg50
g3
(g13
g5
NtRp126
(dp127
g59
I512
sg60
S'>'
sbsbsS'road'
p128
g3
(g4
g5
NtRp129
(dp130
g8
S'A derelict road'
p131
sg10
I01
sg11
I00
sg12
g3
(g13
g5
NtRp132
(dp133
g16
I1049600
sg17
S'.'
sbsg18
I01
sg19
g3
(g13
g5
NtRp134
(dp135
g16
I1049600
sg17
S'.'
sbsbs.