(dp0
S'mountain'
p1
ccopy_reg
_reconstructor
p2
(ctile
Tile
p3
c__builtin__
object
p4
Ntp5
Rp6
(dp7
S'destroyable'
p8
I00
sS'memory_ch'
p9
g2
(cchar
Char
p10
g4
Ntp11
Rp12
(dp13
S'color'
p14
I2097408
sS'symbol'
p15
S'^'
p16
sbsS'name'
p17
S'Mountains'
p18
sS'passable'
p19
I00
sS'see_through'
p20
I01
sS'visible_ch'
p21
g2
(g10
g4
Ntp22
Rp23
(dp24
g14
I2097408
sg15
S'^'
p25
sbsbsS'plains'
p26
g2
(g3
g4
Ntp27
Rp28
(dp29
g8
I00
sg9
g2
(g10
g4
Ntp30
Rp31
(dp32
g14
I2097920
sg15
S'"'
p33
sbsg17
S'Plains'
p34
sg19
I01
sg20
I01
sg21
g2
(g10
g4
Ntp35
Rp36
(dp37
g14
I2097920
sg15
S'"'
p38
sbsbsS'hills'
p39
g2
(g3
g4
Ntp40
Rp41
(dp42
g8
I00
sg9
g2
(g10
g4
Ntp43
Rp44
(dp45
g14
I1049600
sg15
S'~'
p46
sbsg17
S'Hills'
p47
sg19
I01
sg20
I01
sg21
g2
(g10
g4
Ntp48
Rp49
(dp50
g14
I1049600
sg15
S'~'
p51
sbsbsS'f'
p52
g2
(g3
g4
Ntp53
Rp54
(dp55
S'destroyable'
p56
I00
sS'memory_ch'
p57
g2
(g10
g4
Ntp58
Rp59
(dp60
S'color'
p61
I0
sS'symbol'
p62
S'.'
p63
sbsS'name'
p64
S'Dungeon floor'
p65
sS'passable'
p66
I01
sS'see_through'
p67
I01
sS'visible_ch'
p68
g2
(g10
g4
Ntp69
Rp70
(dp71
g61
I0
sg62
S'.'
p72
sbsbsS'us'
p73
g2
(g3
g4
Ntp74
Rp75
(dp76
g56
I01
sg57
g2
(g10
g4
Ntp77
Rp78
(dp79
S'color'
p80
I2097408
sS'symbol'
p81
S'<'
p82
sbsg64
S'Up staircase'
p83
sg66
I01
sg67
I01
sg68
g2
(g10
g4
Ntp84
Rp85
(dp86
S'color'
p87
I512
sS'symbol'
p88
S'<'
p89
sbsbsS'high_mountain'
p90
g2
(g3
g4
Ntp91
Rp92
(dp93
g8
I00
sg9
g2
(g10
g4
Ntp94
Rp95
(dp96
g14
I2097152
sg15
S'^'
p97
sbsg17
S'High mountains'
p98
sg19
I00
sg20
I00
sg21
g2
(g10
g4
Ntp99
Rp100
(dp101
g14
I2097152
sg15
S'^'
p102
sbsbsS'swamp'
p103
g2
(g3
g4
Ntp104
Rp105
(dp106
g8
I00
sg9
g2
(g10
g4
Ntp107
Rp108
(dp109
S'color'
p110
I2097408
sS'symbol'
p111
S'k'
p112
sbsg17
S'Swamp'
p113
sg19
I01
sg20
I01
sg21
g2
(g10
g4
Ntp114
Rp115
(dp116
g14
I768
sg15
S'"'
p117
sbsbsS'r'
p118
g2
(g3
g4
Ntp119
Rp120
(dp121
g56
I01
sg57
g2
(g10
g4
Ntp122
Rp123
(dp124
g80
I2097408
sg81
S'#'
p125
sbsg64
S'Granite rock'
p126
sg66
I00
sg67
I00
sg68
g2
(g10
g4
Ntp127
Rp128
(dp129
g80
I2097408
sg81
S'#'
p130
sbsbsS'u'
p131
g2
(g3
g4
Ntp132
Rp133
(dp134
g56
I00
sg57
g2
(g10
g4
Ntp135
Rp136
(dp137
S'color'
p138
I0
sS'symbol'
p139
S' '
p140
sbsg64
S'You have not seen this place yet'
p141
sg66
I00
sg67
I00
sg68
g2
(g10
g4
Ntp142
Rp143
(dp144
g138
I0
sg139
S' '
p145
sbsbsS'forest'
p146
g2
(g3
g4
Ntp147
Rp148
(dp149
g8
I00
sg9
g2
(g10
g4
Ntp150
Rp151
(dp152
g14
I768
sg15
S'&'
p153
sbsg17
S'Forest'
p154
sg19
I01
sg20
I01
sg21
g2
(g10
g4
Ntp155
Rp156
(dp157
g14
I768
sg15
S'&'
p158
sbsbsS'w'
p159
g2
(g3
g4
Ntp160
Rp161
(dp162
g56
I01
sg57
g2
(g10
g4
Ntp163
Rp164
(dp165
g80
I2097408
sg81
S'#'
p166
sbsg64
S'Wall'
p167
sg66
I00
sg67
I00
sg68
g2
(g10
g4
Ntp168
Rp169
(dp170
g80
I1049600
sg81
S'#'
p171
sbsbsS'river'
p172
g2
(g3
g4
Ntp173
Rp174
(dp175
g8
I00
sg9
g2
(g10
g4
Ntp176
Rp177
(dp178
g14
I1280
sg15
S'='
p179
sbsg17
S'River'
p180
sg19
I00
sg20
I00
sg21
g2
(g10
g4
Ntp181
Rp182
(dp183
g14
I1280
sg15
S'='
p184
sbsbsS'ds'
p185
g2
(g3
g4
Ntp186
Rp187
(dp188
g56
I00
sg57
g2
(g10
g4
Ntp189
Rp190
(dp191
g80
I2097408
sg81
S'>'
p192
sbsg64
S'Down staircase'
p193
sg66
I01
sg67
I01
sg68
g2
(g10
g4
Ntp194
Rp195
(dp196
g80
I512
sg81
S'>'
p197
sbsbsS'road'
p198
g2
(g3
g4
Ntp199
Rp200
(dp201
g8
I00
sg9
g2
(g10
g4
Ntp202
Rp203
(dp204
g14
I1049600
sg15
S'.'
p205
sbsg17
S'A derelict road'
p206
sg19
I01
sg20
I01
sg21
g2
(g10
g4
Ntp207
Rp208
(dp209
g14
I1049600
sg15
S'.'
p210
sbsbs.