(dp0
S'mountain'
p1
ccopy_reg
_reconstructor
p2
(ctile
Tile
p3
c__builtin__
object
p4
Ntp5
Rp6
(dp7
S'destroyable'
p8
I00
sS'memory_ch'
p9
g2
(cchar
Char
p10
g4
Ntp11
Rp12
(dp13
S'color'
p14
I2097408
sS'symbol'
p15
S'^'
p16
sbsS'name'
p17
S'Mountains'
p18
sS'passable'
p19
I00
sS'see_through'
p20
I01
sS'visible_ch'
p21
g2
(g10
g4
Ntp22
Rp23
(dp24
g14
I2097408
sg15
S'^'
p25
sbsbsS'hills'
p26
g2
(g3
g4
Ntp27
Rp28
(dp29
g8
I00
sg9
g2
(g10
g4
Ntp30
Rp31
(dp32
g14
I1049600
sg15
S'~'
p33
sbsg17
S'Hills'
p34
sg19
I01
sg20
I01
sg21
g2
(g10
g4
Ntp35
Rp36
(dp37
g14
I1049600
sg15
S'~'
p38
sbsbsS'f'
p39
g2
(g3
g4
Ntp40
Rp41
(dp42
S'destroyable'
p43
I00
sS'memory_ch'
p44
g2
(g10
g4
Ntp45
Rp46
(dp47
S'color'
p48
I0
sS'symbol'
p49
S'.'
p50
sbsS'name'
p51
S'Dungeon floor'
p52
sS'passable'
p53
I01
sS'see_through'
p54
I01
sS'visible_ch'
p55
g2
(g10
g4
Ntp56
Rp57
(dp58
g48
I0
sg49
S'.'
p59
sbsbsS'us'
p60
g2
(g3
g4
Ntp61
Rp62
(dp63
g43
I01
sg44
g2
(g10
g4
Ntp64
Rp65
(dp66
S'color'
p67
I2097408
sS'symbol'
p68
S'<'
p69
sbsg51
S'Up staircase'
p70
sg53
I01
sg54
I01
sg55
g2
(g10
g4
Ntp71
Rp72
(dp73
S'color'
p74
I512
sS'symbol'
p75
S'<'
p76
sbsbsS'high_mountain'
p77
g2
(g3
g4
Ntp78
Rp79
(dp80
g8
I00
sg9
g2
(g10
g4
Ntp81
Rp82
(dp83
g14
I2097152
sg15
S'^'
p84
sbsg17
S'High mountains'
p85
sg19
I00
sg20
I00
sg21
g2
(g10
g4
Ntp86
Rp87
(dp88
g14
I2097152
sg15
S'^'
p89
sbsbsS'ds'
p90
g2
(g3
g4
Ntp91
Rp92
(dp93
g43
I00
sg44
g2
(g10
g4
Ntp94
Rp95
(dp96
g67
I2097408
sg68
S'>'
p97
sbsg51
S'Down staircase'
p98
sg53
I01
sg54
I01
sg55
g2
(g10
g4
Ntp99
Rp100
(dp101
g67
I512
sg68
S'>'
p102
sbsbsS'swamp'
p103
g2
(g3
g4
Ntp104
Rp105
(dp106
g8
I00
sg9
g2
(g10
g4
Ntp107
Rp108
(dp109
S'color'
p110
I2097408
sS'symbol'
p111
S'k'
p112
sbsg17
S'Swamp'
p113
sg19
I01
sg20
I01
sg21
g2
(g10
g4
Ntp114
Rp115
(dp116
g14
I768
sg15
S'"'
p117
sbsbsS'r'
p118
g2
(g3
g4
Ntp119
Rp120
(dp121
g43
I01
sg44
g2
(g10
g4
Ntp122
Rp123
(dp124
g67
I2097408
sg68
S'#'
p125
sbsg51
S'Granite rock'
p126
sg53
I00
sg54
I00
sg55
g2
(g10
g4
Ntp127
Rp128
(dp129
g67
I2097408
sg68
S'#'
p130
sbsbsS'u'
p131
g2
(g3
g4
Ntp132
Rp133
(dp134
g43
I00
sg44
g2
(g10
g4
Ntp135
Rp136
(dp137
S'color'
p138
I0
sS'symbol'
p139
S' '
p140
sbsg51
S'You have not seen this place yet'
p141
sg53
I00
sg54
I00
sg55
g2
(g10
g4
Ntp142
Rp143
(dp144
g138
I0
sg139
S' '
p145
sbsbsS'forest'
p146
g2
(g3
g4
Ntp147
Rp148
(dp149
g8
I00
sg9
g2
(g10
g4
Ntp150
Rp151
(dp152
g14
I768
sg15
S'&'
p153
sbsg17
S'Forest'
p154
sg19
I01
sg20
I01
sg21
g2
(g10
g4
Ntp155
Rp156
(dp157
g14
I768
sg15
S'&'
p158
sbsbsS'w'
p159
g2
(g3
g4
Ntp160
Rp161
(dp162
g43
I01
sg44
g2
(g10
g4
Ntp163
Rp164
(dp165
g67
I2097408
sg68
S'#'
p166
sbsg51
S'Wall'
p167
sg53
I00
sg54
I00
sg55
g2
(g10
g4
Ntp168
Rp169
(dp170
g67
I1049600
sg68
S'#'
p171
sbsbsS'river'
p172
g2
(g3
g4
Ntp173
Rp174
(dp175
g8
I00
sg9
g2
(g10
g4
Ntp176
Rp177
(dp178
g14
I1280
sg15
S'='
p179
sbsg17
S'River'
p180
sg19
I00
sg20
I00
sg21
g2
(g10
g4
Ntp181
Rp182
(dp183
g14
I1280
sg15
S'='
p184
sbsbsS'plains'
p185
g2
(g3
g4
Ntp186
Rp187
(dp188
g8
I00
sg9
g2
(g10
g4
Ntp189
Rp190
(dp191
g14
I2097920
sg15
S'"'
p192
sbsg17
S'Plains'
p193
sg19
I01
sg20
I01
sg21
g2
(g10
g4
Ntp194
Rp195
(dp196
g14
I2097920
sg15
S'"'
p197
sbsbsS'road'
p198
g2
(g3
g4
Ntp199
Rp200
(dp201
g8
I00
sg9
g2
(g10
g4
Ntp202
Rp203
(dp204
g14
I1049600
sg15
S'.'
p205
sbsg17
S'A derelict road'
p206
sg19
I01
sg20
I01
sg21
g2
(g10
g4
Ntp207
Rp208
(dp209
g14
I1049600
sg15
S'.'
p210
sbsbs.