(dp0
S'mountain'
p1
ccopy_reg
_reconstructor
p2
(ctile
Tile
p3
c__builtin__
object
p4
Ntp5
Rp6
(dp7
S'destroyable'
p8
I00
sS'ch_memory'
p9
g2
(cchar
Char
p10
g4
Ntp11
Rp12
(dp13
S'color'
p14
I2097408
sS'symbol'
p15
S'^'
p16
sbsS'name'
p17
S'Mountains'
p18
sS'ch_visible'
p19
g2
(g10
g4
Ntp20
Rp21
(dp22
g14
I2097408
sg15
g16
sbsS'passable'
p23
I00
sS'see_through'
p24
I01
sS'movement_cost'
p25
I1000
sbsS'plains'
p26
g2
(g3
g4
Ntp27
Rp28
(dp29
g8
I00
sg9
g2
(g10
g4
Ntp30
Rp31
(dp32
g14
I2097920
sg15
S'"'
p33
sbsg17
S'Plains'
p34
sg19
g2
(g10
g4
Ntp35
Rp36
(dp37
g14
I2097920
sg15
g33
sbsg23
I01
sg24
I01
sg25
I1000
sbsS'hills'
p38
g2
(g3
g4
Ntp39
Rp40
(dp41
g8
I00
sg9
g2
(g10
g4
Ntp42
Rp43
(dp44
g14
I1049600
sg15
S'~'
p45
sbsg17
S'Hills'
p46
sg19
g2
(g10
g4
Ntp47
Rp48
(dp49
g14
I1049600
sg15
g45
sbsg23
I01
sg24
I01
sg25
I1000
sbsS'f'
p50
g2
(g3
g4
Ntp51
Rp52
(dp53
g8
I00
sg9
g2
(g10
g4
Ntp54
Rp55
(dp56
g14
I0
sg15
S'.'
p57
sbsg17
S'Dungeon floor'
p58
sg19
g2
(g10
g4
Ntp59
Rp60
(dp61
g14
I0
sg15
g57
sbsg23
I01
sg24
I01
sg25
I1000
sbsS'us'
p62
g2
(g3
g4
Ntp63
Rp64
(dp65
g8
I01
sg9
g2
(g10
g4
Ntp66
Rp67
(dp68
g14
I0
sg15
S'<'
p69
sbsg17
S'Staircase going up'
p70
sg19
g2
(g10
g4
Ntp71
Rp72
(dp73
g14
I512
sg15
g69
sbsg23
I01
sg24
I01
sg25
I1000
sbsS'high_mountain'
p74
g2
(g3
g4
Ntp75
Rp76
(dp77
g8
I00
sg9
g2
(g10
g4
Ntp78
Rp79
(dp80
g14
I2097152
sg15
g16
sbsg17
S'High mountains'
p81
sg19
g2
(g10
g4
Ntp82
Rp83
(dp84
g14
I2097152
sg15
g16
sbsg23
I00
sg24
I00
sg25
I1000
sbsS'swamp'
p85
g2
(g3
g4
Ntp86
Rp87
(dp88
g8
I00
sg9
g2
(g10
g4
Ntp89
Rp90
(dp91
g14
I768
sg15
g33
sbsg17
S'Swamp'
p92
sg19
g2
(g10
g4
Ntp93
Rp94
(dp95
g14
I768
sg15
g33
sbsg23
I01
sg24
I01
sg25
I1000
sbsS'r'
p96
g2
(g3
g4
Ntp97
Rp98
(dp99
g8
I01
sg9
g2
(g10
g4
Ntp100
Rp101
(dp102
g14
I2097408
sg15
S'#'
p103
sbsg17
S'Granite rock'
p104
sg19
g2
(g10
g4
Ntp105
Rp106
(dp107
g14
I2097408
sg15
g103
sbsg23
I00
sg24
I00
sg25
I1000
sbsS'u'
p108
g2
(g3
g4
Ntp109
Rp110
(dp111
g8
I00
sg9
g2
(g10
g4
Ntp112
Rp113
(dp114
g14
I0
sg15
S' '
p115
sbsg17
S'You have not seen this place yet'
p116
sg19
g2
(g10
g4
Ntp117
Rp118
(dp119
g14
I0
sg15
g115
sbsg23
I00
sg24
I00
sg25
I1000
sbsS'forest'
p120
g2
(g3
g4
Ntp121
Rp122
(dp123
g8
I00
sg9
g2
(g10
g4
Ntp124
Rp125
(dp126
g14
I768
sg15
S'&'
p127
sbsg17
S'Forest'
p128
sg19
g2
(g10
g4
Ntp129
Rp130
(dp131
g14
I768
sg15
g127
sbsg23
I01
sg24
I01
sg25
I1000
sbsS'w'
p132
g2
(g3
g4
Ntp133
Rp134
(dp135
g8
I01
sg9
g2
(g10
g4
Ntp136
Rp137
(dp138
g14
I2097408
sg15
g103
sbsg17
S'Wall'
p139
sg19
g2
(g10
g4
Ntp140
Rp141
(dp142
g14
I1049600
sg15
g103
sbsg23
I00
sg24
I00
sg25
I1000
sbsS'river'
p143
g2
(g3
g4
Ntp144
Rp145
(dp146
g8
I00
sg9
g2
(g10
g4
Ntp147
Rp148
(dp149
g14
I1280
sg15
S'='
p150
sbsg17
S'River'
p151
sg19
g2
(g10
g4
Ntp152
Rp153
(dp154
g14
I1280
sg15
g150
sbsg23
I00
sg24
I00
sg25
I1000
sbsS'ds'
p155
g2
(g3
g4
Ntp156
Rp157
(dp158
g8
I00
sg9
g2
(g10
g4
Ntp159
Rp160
(dp161
g14
I0
sg15
S'>'
p162
sbsg17
S'D\x08Staircase going down'
p163
sg19
g2
(g10
g4
Ntp164
Rp165
(dp166
g14
I512
sg15
g162
sbsg23
I01
sg24
I01
sg25
I1000
sbsS'road'
p167
g2
(g3
g4
Ntp168
Rp169
(dp170
g8
I00
sg9
g2
(g10
g4
Ntp171
Rp172
(dp173
g14
I1049600
sg15
g57
sbsg17
S'A derelict road'
p174
sg19
g2
(g10
g4
Ntp175
Rp176
(dp177
g14
I1049600
sg15
g57
sbsg23
I01
sg24
I01
sg25
I1000
sbs.