(dp0
S'mountain'
p1
ccopy_reg
_reconstructor
p2
(ctile
Tile
p3
c__builtin__
object
p4
Ntp5
Rp6
(dp7
S'destroyable'
p8
I00
sS'memory_ch'
p9
g2
(cchar
Char
p10
g4
Ntp11
Rp12
(dp13
S'color'
p14
I2097408
sS'symbol'
p15
S'^'
p16
sbsS'name'
p17
S'Mountains'
p18
sS'passable'
p19
I00
sS'see_through'
p20
I01
sS'visible_ch'
p21
g2
(g10
g4
Ntp22
Rp23
(dp24
g14
I2097408
sg15
S'^'
p25
sbsbsS'swamp'
p26
g2
(g3
g4
Ntp27
Rp28
(dp29
g8
I00
sg9
g2
(g10
g4
Ntp30
Rp31
(dp32
g14
I768
sg15
S'"'
p33
sbsg17
S'Swamp'
p34
sg19
I01
sg20
I01
sg21
g2
(g10
g4
Ntp35
Rp36
(dp37
g14
I768
sg15
S'"'
p38
sbsbsS'hills'
p39
g2
(g3
g4
Ntp40
Rp41
(dp42
g8
I00
sg9
g2
(g10
g4
Ntp43
Rp44
(dp45
g14
I1049600
sg15
S'~'
p46
sbsg17
S'Hills'
p47
sg19
I01
sg20
I01
sg21
g2
(g10
g4
Ntp48
Rp49
(dp50
g14
I1049600
sg15
S'~'
p51
sbsbsS'f'
p52
g2
(g3
g4
Ntp53
Rp54
(dp55
S'destroyable'
p56
I00
sS'memory_ch'
p57
g2
(g10
g4
Ntp58
Rp59
(dp60
S'color'
p61
I0
sS'symbol'
p62
S'.'
p63
sbsS'name'
p64
S'Dungeon floor'
p65
sS'passable'
p66
I01
sS'see_through'
p67
I01
sS'visible_ch'
p68
g2
(g10
g4
Ntp69
Rp70
(dp71
g61
I0
sg62
S'.'
p72
sbsbsS'us'
p73
g2
(g3
g4
Ntp74
Rp75
(dp76
g56
I01
sg57
g2
(g10
g4
Ntp77
Rp78
(dp79
S'color'
p80
I2097408
sS'symbol'
p81
S'<'
p82
sbsg64
S'Up staircase'
p83
sg66
I01
sg67
I01
sg68
g2
(g10
g4
Ntp84
Rp85
(dp86
S'color'
p87
I512
sS'symbol'
p88
S'<'
p89
sbsbsS'high_mountain'
p90
g2
(g3
g4
Ntp91
Rp92
(dp93
g8
I00
sg9
g2
(g10
g4
Ntp94
Rp95
(dp96
g14
I2097152
sg15
S'^'
p97
sbsg17
S'High mountains'
p98
sg19
I00
sg20
I00
sg21
g2
(g10
g4
Ntp99
Rp100
(dp101
g14
I2097152
sg15
S'^'
p102
sbsbsS'plains'
p103
g2
(g3
g4
Ntp104
Rp105
(dp106
g8
I00
sg9
g2
(g10
g4
Ntp107
Rp108
(dp109
g14
I2097920
sg15
S'"'
p110
sbsg17
S'Plains'
p111
sg19
I01
sg20
I01
sg21
g2
(g10
g4
Ntp112
Rp113
(dp114
g14
I2097920
sg15
S'"'
p115
sbsbsS'r'
p116
g2
(g3
g4
Ntp117
Rp118
(dp119
g56
I01
sg57
g2
(g10
g4
Ntp120
Rp121
(dp122
g80
I2097408
sg81
S'#'
p123
sbsg64
S'Granite rock'
p124
sg66
I00
sg67
I00
sg68
g2
(g10
g4
Ntp125
Rp126
(dp127
g80
I2097408
sg81
S'#'
p128
sbsbsS'u'
p129
g2
(g3
g4
Ntp130
Rp131
(dp132
g56
I00
sg57
g2
(g10
g4
Ntp133
Rp134
(dp135
S'color'
p136
I0
sS'symbol'
p137
S' '
p138
sbsg64
S'You have not seen this place yet'
p139
sg66
I00
sg67
I00
sg68
g2
(g10
g4
Ntp140
Rp141
(dp142
g136
I0
sg137
S' '
p143
sbsbsS'forest'
p144
g2
(g3
g4
Ntp145
Rp146
(dp147
g8
I00
sg9
g2
(g10
g4
Ntp148
Rp149
(dp150
g14
I768
sg15
S'&'
p151
sbsg17
S'Forest'
p152
sg19
I01
sg20
I01
sg21
g2
(g10
g4
Ntp153
Rp154
(dp155
g14
I768
sg15
S'&'
p156
sbsbsS'w'
p157
g2
(g3
g4
Ntp158
Rp159
(dp160
g56
I01
sg57
g2
(g10
g4
Ntp161
Rp162
(dp163
g80
I2097408
sg81
S'#'
p164
sbsg64
S'Wall'
p165
sg66
I00
sg67
I00
sg68
g2
(g10
g4
Ntp166
Rp167
(dp168
g80
I1049600
sg81
S'#'
p169
sbsbsS'river'
p170
g2
(g3
g4
Ntp171
Rp172
(dp173
g8
I00
sg9
g2
(g10
g4
Ntp174
Rp175
(dp176
g14
I1280
sg15
S'='
p177
sbsg17
S'River'
p178
sg19
I00
sg20
I00
sg21
g2
(g10
g4
Ntp179
Rp180
(dp181
g14
I1280
sg15
S'='
p182
sbsbsS'ds'
p183
g2
(g3
g4
Ntp184
Rp185
(dp186
g56
I00
sg57
g2
(g10
g4
Ntp187
Rp188
(dp189
g80
I2097408
sg81
S'>'
p190
sbsg64
S'Down staircase'
p191
sg66
I01
sg67
I01
sg68
g2
(g10
g4
Ntp192
Rp193
(dp194
g80
I512
sg81
S'>'
p195
sbsbsS'road'
p196
g2
(g3
g4
Ntp197
Rp198
(dp199
g8
I00
sg9
g2
(g10
g4
Ntp200
Rp201
(dp202
g14
I1049600
sg15
S'.'
p203
sbsg17
S'A derelict road'
p204
sg19
I01
sg20
I01
sg21
g2
(g10
g4
Ntp205
Rp206
(dp207
g14
I1049600
sg15
S'.'
p208
sbsbs.