ccopy_reg
_reconstructor
p0
(cdungeonproperties
DungeonProperties
p1
c__builtin__
object
p2
Ntp3
Rp4
(dp5
S'tilemaps'
p6
(dp7
S'wild'
p8
g0
(cmap
TileMap
p9
c__builtin__
list
p10
(lp11
S'ground'
p12
aS'jungle'
p13
ag12
ag12
ag12
ag13
ag12
ag13
ag12
ag12
ag12
ag12
ag12
ag13
ag13
ag13
ag13
ag12
ag12
ag12
ag12
ag12
ag12
ag12
ag13
ag12
ag12
ag12
ag12
ag12
ag12
ag13
ag12
ag13
ag12
ag12
ag13
ag12
ag12
ag12
ag13
ag12
ag13
ag13
ag12
ag13
ag13
ag12
ag13
ag12
ag12
ag12
ag13
ag12
ag13
ag12
ag12
ag13
ag13
ag12
ag12
ag12
ag13
ag13
ag13
ag12
ag12
ag12
ag13
ag12
ag12
ag12
ag12
ag12
ag12
ag12
ag13
ag13
ag13
ag12
ag12
ag12
ag13
ag13
ag12
ag13
ag12
ag12
ag12
ag13
ag12
ag12
ag12
ag13
ag13
ag13
ag12
ag12
ag12
ag13
ag12
ag13
ag13
ag13
ag12
ag13
ag12
ag13
ag12
ag12
ag12
ag12
ag12
ag12
ag12
ag13
ag13
ag12
ag12
ag12
ag12
ag12
ag12
ag12
ag12
ag12
ag13
ag12
ag13
ag12
ag12
ag12
ag12
ag13
ag12
ag12
ag12
ag12
ag12
ag12
ag12
ag12
ag13
ag12
ag12
ag12
ag13
ag13
ag12
ag12
ag13
ag12
ag13
ag12
ag13
ag12
ag13
ag12
ag13
ag13
ag12
ag13
ag12
ag13
ag13
ag12
ag12
ag12
ag12
ag12
ag12
ag12
ag12
ag12
ag12
ag13
ag12
ag12
ag12
ag12
ag12
ag13
ag12
ag12
ag13
ag12
ag12
ag12
ag12
ag12
ag13
ag13
ag12
ag12
ag12
ag12
ag12
ag13
ag13
ag12
ag12
ag12
ag12
ag13
ag13
ag13
ag12
ag12
ag12
ag13
ag13
ag12
ag13
ag12
ag12
ag12
ag12
ag12
ag12
ag12
ag12
ag12
ag12
ag12
ag12
ag12
ag12
ag12
ag12
ag13
ag13
ag12
ag12
ag12
ag12
ag13
ag12
ag12
ag12
ag13
ag12
ag12
ag12
ag12
ag13
ag12
ag12
ag12
ag12
ag12
ag12
ag12
ag12
ag13
ag13
ag12
ag13
ag12
ag12
ag12
ag12
ag12
ag12
ag13
ag12
ag13
ag12
ag12
ag12
ag12
ag12
ag13
ag12
ag12
ag13
ag12
ag12
ag12
ag12
ag12
ag12
ag12
ag12
ag12
ag13
ag12
ag12
ag13
ag12
ag13
ag12
ag12
ag13
ag12
ag12
ag13
ag12
ag12
ag12
ag12
ag12
ag12
ag12
ag13
ag13
ag12
ag12
ag12
ag12
ag13
ag12
ag13
ag12
ag12
ag12
ag12
ag13
ag13
ag12
ag12
ag13
ag12
ag12
ag13
ag12
ag12
ag12
ag12
ag13
ag12
ag12
ag12
ag13
ag12
ag12
ag12
ag12
ag12
ag12
ag12
ag12
ag12
ag12
ag12
ag13
ag13
ag12
ag12
ag12
ag13
ag12
ag12
ag12
ag12
ag13
ag12
ag12
ag13
ag12
ag12
ag12
ag12
ag13
ag12
ag12
ag13
ag13
ag12
ag13
ag12
ag12
ag12
ag12
ag12
ag12
ag12
ag12
ag12
ag12
ag12
ag12
ag12
ag12
ag13
ag12
ag13
ag12
ag12
ag13
ag12
ag13
ag13
ag12
ag12
ag12
ag12
ag12
ag12
ag12
ag12
ag12
ag12
ag12
ag13
ag12
ag12
ag12
ag12
ag12
ag13
ag12
ag12
ag13
ag12
ag12
ag12
ag13
ag12
ag13
ag12
ag13
ag12
ag13
ag12
ag12
ag12
ag12
ag12
ag13
ag13
ag13
ag13
ag12
ag12
ag12
ag12
ag12
ag12
ag12
ag12
ag13
ag12
ag13
ag12
ag12
ag12
ag13
ag13
ag12
ag13
ag12
ag12
ag12
ag12
ag12
ag12
ag12
ag12
ag13
ag12
ag12
ag13
ag13
ag12
ag12
ag13
ag12
ag12
ag13
ag13
ag12
ag12
ag12
ag13
ag12
ag12
ag13
ag12
ag13
ag12
ag12
ag12
ag13
ag12
ag12
ag12
ag12
ag12
ag12
ag12
ag12
ag12
ag12
ag12
ag13
ag12
ag12
ag12
ag12
ag12
ag12
ag12
ag12
ag13
ag13
ag12
ag12
ag12
ag12
ag13
ag12
ag12
ag12
ag12
ag13
ag13
ag12
ag12
ag12
ag13
ag12
ag13
ag12
ag12
ag12
ag13
ag12
ag12
ag13
ag12
ag13
ag12
ag13
ag12
ag13
ag12
ag13
ag13
ag12
ag12
ag13
ag12
ag13
ag12
ag13
ag12
ag12
ag12
ag12
ag12
ag12
ag12
ag13
ag12
ag13
ag13
ag12
ag12
ag12
ag12
ag12
ag13
ag12
ag13
ag12
ag12
ag12
ag12
ag12
ag13
ag12
ag13
ag12
ag12
ag12
ag13
ag13
ag13
ag13
ag12
ag12
ag12
ag12
ag12
ag13
ag12
ag12
ag12
ag12
ag12
ag12
ag12
ag12
ag13
ag12
ag12
ag13
ag12
ag12
ag13
ag13
ag12
ag12
ag12
ag12
ag12
ag12
ag13
ag13
ag12
ag12
ag12
ag13
ag12
ag12
ag13
ag12
ag12
ag13
ag13
ag12
ag13
ag13
ag12
ag12
ag12
ag12
ag12
ag13
ag12
ag12
ag12
ag13
ag13
ag13
ag12
ag13
ag12
ag13
ag13
ag12
ag12
ag12
ag12
ag12
ag13
ag13
ag12
ag13
ag12
ag12
ag13
ag12
ag12
ag12
ag12
ag12
ag13
ag12
ag13
ag12
ag12
ag12
ag13
ag13
ag12
ag12
ag13
ag12
ag12
ag12
ag12
ag12
ag12
ag12
ag13
ag12
ag12
ag13
ag12
ag12
ag12
ag13
ag13
ag13
ag12
ag13
ag13
ag12
ag12
ag12
ag12
ag12
ag13
ag12
ag13
ag12
ag12
ag12
ag12
ag12
ag13
ag12
ag13
ag13
ag13
ag13
ag12
ag13
ag13
ag12
ag13
ag12
ag13
ag12
ag13
ag12
ag13
ag13
ag13
ag12
ag13
ag12
ag12
ag13
ag13
ag12
ag13
ag12
ag13
ag12
ag13
ag13
ag12
ag12
ag13
ag12
ag13
ag12
ag12
ag12
ag13
ag13
ag12
ag12
ag12
ag13
ag13
ag12
ag12
ag12
ag12
ag13
ag12
ag12
ag12
ag12
ag12
ag13
ag13
ag12
ag13
ag12
ag13
ag12
ag12
ag13
ag12
ag12
ag12
ag12
ag12
ag13
ag12
ag12
ag13
ag13
ag12
ag12
ag12
ag12
ag12
ag13
ag12
ag12
ag12
ag13
ag12
ag12
ag13
ag12
ag13
ag12
ag12
ag12
ag12
ag13
ag13
ag13
ag12
ag13
ag12
ag12
ag12
ag13
ag12
ag13
ag12
ag13
ag12
ag12
ag12
ag13
ag13
ag13
ag13
ag12
ag12
ag12
ag12
ag13
ag13
ag12
ag12
ag12
ag13
ag12
ag12
ag12
ag13
ag12
ag12
ag12
ag12
ag12
ag12
ag13
ag12
ag12
ag12
ag12
ag13
ag12
ag12
ag12
ag12
ag12
ag13
ag12
ag12
ag12
ag13
ag12
ag13
ag12
ag12
ag13
ag12
ag12
ag13
ag12
ag12
ag12
ag12
ag12
ag13
ag12
ag12
ag12
ag12
ag12
ag12
ag12
ag12
ag12
ag12
ag12
ag13
ag12
ag13
ag12
ag12
ag12
ag13
ag12
ag13
ag12
ag12
ag12
ag12
ag12
ag13
ag12
ag12
ag13
ag12
ag12
ag12
ag13
ag12
ag12
ag12
ag12
ag12
ag12
ag12
ag12
ag12
ag13
ag12
ag12
ag13
ag12
ag13
ag13
ag13
ag13
ag13
ag12
ag12
ag13
ag12
ag13
ag12
ag13
ag13
ag12
ag12
ag12
ag12
ag13
ag12
ag12
ag12
ag12
ag13
ag12
ag12
ag12
ag12
ag12
ag12
ag12
ag12
ag12
ag12
ag13
ag12
ag12
ag12
ag13
ag13
ag12
ag12
ag12
ag12
ag12
ag12
ag13
ag13
ag13
ag13
ag13
ag12
ag12
ag12
ag13
ag13
ag12
ag12
ag12
ag12
ag12
ag12
ag12
ag12
ag13
ag13
ag12
ag12
ag12
ag13
ag12
ag12
ag12
ag12
ag12
ag12
ag12
ag12
ag12
ag12
ag12
ag12
ag12
ag12
ag12
ag12
ag12
ag12
ag12
ag13
ag12
ag12
ag12
ag13
ag12
ag13
ag13
ag12
ag12
ag12
ag12
ag13
ag13
ag13
ag13
ag13
ag12
ag12
ag12
ag13
ag12
ag12
ag13
ag13
ag13
ag12
ag12
ag12
ag12
ag12
ag12
ag12
ag12
ag12
ag12
ag13
ag12
ag12
ag12
ag12
ag13
ag12
ag12
ag12
ag12
ag12
ag13
ag12
ag12
ag12
ag12
ag12
ag12
ag13
ag12
ag13
ag12
ag12
ag12
ag12
ag13
ag13
ag13
ag12
ag13
ag12
ag13
ag12
ag12
ag13
ag13
ag13
ag13
ag12
ag13
ag12
ag12
ag12
ag12
ag12
ag13
ag13
ag13
ag12
ag12
ag12
ag13
ag12
ag13
ag12
ag12
ag12
ag12
ag12
ag12
ag12
ag13
ag12
ag13
ag12
ag12
ag12
ag12
ag13
ag12
ag12
ag12
ag12
ag13
ag13
ag12
ag12
ag12
ag12
ag13
ag12
ag12
ag12
ag13
ag12
ag12
ag12
ag12
ag13
ag12
ag12
ag13
ag12
ag12
ag12
ag12
ag13
ag12
ag12
ag12
ag12
ag12
ag12
ag13
ag12
ag12
ag13
ag12
ag12
ag13
ag12
ag12
ag13
ag12
ag12
ag13
ag13
ag13
ag12
ag13
ag12
ag12
ag13
ag12
ag12
ag13
ag12
ag12
ag13
ag12
ag12
ag12
ag12
ag13
ag13
ag12
ag13
ag13
ag12
ag12
ag13
ag13
ag12
ag13
ag12
ag12
ag12
ag12
ag12
ag12
ag13
ag12
ag12
ag12
ag13
ag12
ag12
ag12
ag13
ag12
ag13
ag13
ag12
ag12
ag13
ag13
ag12
ag12
ag12
ag12
ag12
ag12
ag12
ag12
ag12
ag13
ag13
ag12
ag12
ag13
ag12
ag13
ag12
ag12
ag12
ag13
ag12
ag12
ag12
ag12
ag12
ag12
ag12
ag12
ag12
ag12
ag13
ag12
ag12
ag12
ag12
ag12
ag12
ag12
ag13
ag13
ag12
ag13
ag13
ag12
ag12
ag13
ag12
ag13
ag13
ag12
ag12
ag12
ag12
ag12
ag12
ag12
ag12
ag12
ag12
ag12
ag12
ag13
ag12
ag13
ag12
ag12
ag12
ag12
ag12
ag13
ag12
ag12
ag12
ag12
ag12
ag12
ag12
ag13
ag13
ag12
ag12
ag13
ag12
ag13
ag12
ag12
ag13
ag13
ag12
ag12
ag12
ag12
ag13
ag13
ag12
ag12
ag13
ag12
ag12
ag12
ag13
ag13
ag12
ag13
ag12
ag12
ag12
ag12
ag12
ag12
ag13
ag12
ag12
ag12
ag12
ag12
ag13
ag12
ag13
ag13
ag12
ag13
ag12
ag12
ag12
ag13
ag13
ag12
ag13
ag12
ag12
ag12
ag12
ag12
ag12
ag12
ag12
ag12
ag13
ag12
ag13
ag13
ag12
ag13
ag12
ag12
ag12
ag12
ag12
ag12
ag13
ag12
ag13
ag12
ag13
ag12
ag12
ag12
ag13
ag12
ag12
ag12
ag12
ag13
ag12
ag12
ag12
ag12
ag12
ag12
ag12
ag13
ag12
ag13
ag12
ag12
ag12
ag12
ag12
ag12
ag12
ag12
ag12
ag12
ag12
ag12
ag12
ag12
ag12
ag12
ag12
ag12
ag13
ag13
ag13
ag12
ag13
ag12
ag13
ag12
ag12
ag13
ag13
ag12
ag13
ag12
ag13
ag13
ag12
ag12
ag12
ag12
ag12
ag12
ag12
ag12
ag13
ag12
ag13
ag12
ag12
ag12
ag12
ag13
ag12
ag12
ag13
ag12
ag12
ag13
ag12
ag12
ag12
ag12
ag12
ag13
ag12
ag12
ag12
ag12
ag12
ag12
ag12
ag13
ag13
ag13
ag12
ag13
ag12
ag13
ag12
ag13
ag12
ag12
ag13
ag12
ag12
ag13
ag13
ag13
ag13
ag12
ag12
ag12
ag12
ag13
ag12
ag13
ag12
ag13
aS'w'
p14
ag14
ag14
ag13
ag14
ag12
ag14
ag14
ag14
ag14
ag14
ag12
ag12
ag12
ag12
ag13
ag12
ag12
ag12
ag12
ag12
ag12
ag12
ag12
ag12
ag12
ag13
ag13
ag13
ag12
ag13
ag13
ag12
ag12
ag12
ag12
ag12
ag12
ag12
ag13
ag12
ag12
ag13
ag13
ag12
ag13
ag13
ag12
ag13
ag12
ag12
ag13
ag12
ag12
ag12
ag13
ag12
ag12
ag13
ag12
ag13
ag12
ag12
ag12
ag12
ag12
ag12
ag12
ag13
ag12
ag12
ag12
ag12
ag12
ag12
ag13
ag12
ag12
ag12
ag13
ag13
ag13
ag13
ag12
ag13
ag12
ag13
ag13
ag12
ag12
ag14
ag13
ag12
ag13
ag13
ag12
ag12
ag12
ag12
ag12
ag12
ag12
ag12
ag12
ag13
ag12
ag12
ag12
ag13
ag12
ag12
ag13
ag13
ag13
ag13
ag13
ag12
ag13
ag13
ag13
ag12
ag12
ag12
ag12
ag12
ag13
ag13
ag12
ag13
ag13
ag12
ag12
ag12
ag13
ag13
ag12
ag12
ag12
ag13
ag13
ag12
ag12
ag12
ag12
ag12
ag12
ag12
ag12
ag12
ag12
ag12
ag12
ag12
ag12
ag13
ag12
ag12
ag13
ag12
ag12
ag14
ag13
ag12
ag12
ag12
ag12
ag12
ag13
ag12
ag12
ag14
ag12
ag13
ag13
ag12
ag12
ag12
ag12
ag12
ag13
ag12
ag13
ag12
ag13
ag13
ag12
ag12
ag12
ag12
ag12
ag12
ag12
ag12
ag12
ag13
ag13
ag12
ag12
ag12
ag13
ag12
ag13
ag12
ag12
ag12
ag12
ag13
ag12
ag12
ag12
ag13
ag12
ag13
ag12
ag13
ag13
ag13
ag13
ag12
ag13
ag12
ag13
ag12
ag12
ag12
ag12
ag12
ag12
ag12
ag12
ag13
ag13
ag12
ag13
ag12
ag12
ag12
ag12
ag12
ag12
ag14
ag13
ag13
ag13
ag12
ag13
ag12
ag12
ag13
ag13
ag13
ag13
ag12
ag12
ag13
ag13
ag12
ag13
ag12
ag13
ag12
ag12
ag13
ag12
ag12
ag12
ag13
ag13
ag12
ag12
ag12
ag12
ag12
ag12
ag12
ag12
ag12
ag12
ag13
ag12
ag13
ag13
ag12
ag13
ag12
ag13
ag12
ag12
ag12
ag13
ag12
ag12
ag12
ag12
ag12
ag12
ag12
ag12
ag12
ag12
ag12
ag12
ag13
ag12
ag13
ag12
ag12
ag12
ag13
ag12
ag12
ag13
ag12
ag12
ag12
ag13
ag12
ag12
ag12
ag12
ag13
ag12
ag12
ag12
ag12
aS'ds'
p15
ag12
ag12
ag12
ag12
ag13
ag12
ag12
ag12
ag12
ag12
ag12
ag12
ag13
ag13
ag13
ag13
ag13
ag12
ag13
ag12
ag12
ag12
ag13
ag13
ag12
ag13
ag12
ag12
ag12
ag13
ag13
ag12
ag12
ag12
ag13
ag12
ag12
ag12
ag13
ag12
ag12
ag13
ag13
ag12
ag12
ag12
ag12
ag13
ag13
ag12
ag12
ag12
ag12
ag13
ag13
ag13
ag12
ag12
ag12
ag13
ag12
ag12
ag13
ag13
ag12
ag13
ag12
ag12
ag12
ag12
ag13
ag12
ag12
ag12
ag13
ag12
ag12
ag13
ag12
ag12
ag13
ag12
ag12
ag12
ag14
ag12
ag12
ag12
ag12
ag13
ag12
ag12
ag13
ag13
ag12
ag12
ag12
ag12
ag12
ag13
ag12
ag12
ag12
ag12
ag13
ag12
ag12
ag13
ag12
ag13
ag12
ag12
ag12
ag13
ag12
ag12
ag12
ag12
ag12
ag12
ag12
ag13
ag13
ag12
ag12
ag12
ag12
ag13
ag12
ag13
ag12
ag12
ag12
ag13
ag12
ag12
ag12
ag12
ag12
ag13
ag12
ag12
ag13
ag13
ag12
ag12
ag12
ag12
ag13
ag13
ag12
ag13
ag12
ag13
ag13
ag13
ag13
ag13
ag12
ag13
ag12
ag12
ag12
ag13
ag13
ag12
ag12
ag13
ag13
ag12
ag12
ag13
ag13
ag13
ag12
ag12
ag12
ag12
ag12
ag12
ag13
ag13
ag12
ag12
ag12
ag13
ag12
ag13
ag12
ag13
ag12
ag13
ag13
ag12
ag12
ag12
ag13
ag13
ag12
ag13
ag13
ag12
ag12
ag13
ag13
ag12
ag12
ag12
ag12
ag12
ag13
ag13
ag12
ag12
ag12
ag12
ag12
ag12
ag12
ag12
ag12
ag12
ag12
ag12
ag12
ag13
ag12
ag12
ag12
ag13
ag12
ag13
ag13
ag13
ag14
ag12
ag12
ag12
ag12
ag13
ag12
ag13
ag12
ag12
ag13
ag12
ag12
ag13
ag13
ag12
ag12
ag12
ag12
ag12
ag13
ag12
ag12
ag13
ag12
ag12
ag12
ag13
ag12
ag12
ag13
ag12
ag13
ag13
ag13
ag12
ag12
ag12
ag13
ag12
ag12
ag13
ag12
ag13
ag12
ag12
ag12
ag12
ag12
ag13
ag12
ag12
ag12
ag12
ag13
ag13
ag12
ag13
ag13
ag12
ag12
ag12
ag12
ag12
ag12
ag13
ag12
ag12
ag12
ag13
ag12
ag12
ag12
ag12
ag13
ag13
ag13
ag12
ag13
ag12
ag14
ag14
ag13
ag14
ag14
ag14
ag14
ag14
ag14
ag14
ag13
ag13
ag12
ag12
ag12
ag13
ag13
ag12
ag12
ag13
ag12
ag13
ag12
ag13
ag12
ag13
ag13
ag12
ag12
ag13
ag12
ag13
ag12
ag12
ag13
ag12
ag12
ag13
ag13
ag12
ag12
ag12
ag13
ag12
ag12
ag12
ag12
ag12
ag12
ag12
ag12
ag12
ag13
ag13
ag12
ag12
ag13
ag12
ag12
ag13
ag13
ag13
ag12
ag12
ag13
ag13
ag12
ag12
ag12
ag12
ag12
ag12
ag13
ag12
ag12
ag12
ag13
ag12
ag12
ag13
ag12
ag12
ag13
ag12
ag13
ag13
ag12
ag12
ag12
ag12
ag13
ag13
ag12
ag13
ag13
ag12
ag12
ag12
ag13
ag12
ag12
ag13
ag12
ag12
ag12
ag12
ag12
ag13
ag12
ag12
ag12
ag12
ag13
ag12
ag12
ag13
ag12
ag12
ag12
ag12
ag13
ag12
ag12
ag13
ag12
ag12
ag12
ag13
ag12
ag12
ag12
ag12
ag13
ag13
ag12
ag13
ag13
ag12
ag12
ag12
ag12
ag12
ag13
ag13
ag13
ag12
ag13
ag13
ag12
ag12
ag12
ag12
ag13
ag13
ag13
ag12
ag12
ag12
ag13
ag13
ag12
ag12
ag12
ag12
ag12
ag12
ag12
ag12
ag12
ag13
ag12
ag12
ag12
ag13
ag13
ag13
ag12
ag12
ag12
ag12
ag13
ag13
ag12
ag12
ag12
ag13
ag12
ag12
ag12
ag12
ag12
ag12
ag12
ag12
ag12
ag12
ag12
ag12
ag12
ag12
ag12
ag12
ag12
ag12
ag12
ag12
ag12
ag12
ag12
ag12
ag13
ag13
ag13
ag12
ag12
ag12
ag12
ag13
ag12
ag12
ag12
ag13
ag12
ag12
ag13
ag12
ag12
ag12
ag12
ag12
ag12
ag13
ag12
ag12
ag12
ag12
ag12
ag12
ag12
ag13
ag12
ag12
ag12
ag12
ag13
ag13
ag12
ag12
ag12
ag13
ag13
ag12
ag12
ag12
ag12
ag12
ag13
ag12
ag13
ag12
ag13
ag12
ag12
ag12
ag13
ag12
ag12
ag12
ag12
ag12
ag13
ag13
ag12
ag12
ag12
ag13
ag12
ag13
ag12
ag12
ag12
ag13
ag12
ag13
ag12
ag13
ag13
ag12
ag12
ag13
ag12
ag12
ag13
ag12
ag13
ag13
ag12
ag13
ag12
ag12
ag12
ag13
ag12
ag12
ag13
ag12
ag13
ag12
ag12
ag13
ag12
ag13
ag13
ag12
ag12
ag13
ag13
ag12
ag12
ag12
ag12
ag12
ag12
ag12
ag12
ag13
ag12
ag13
ag13
ag13
ag13
ag12
ag12
ag12
ag12
ag12
ag12
ag12
ag12
ag13
ag13
ag12
ag12
ag12
ag12
ag13
ag13
ag12
ag12
ag12
ag13
ag12
ag12
ag13
ag12
ag12
ag13
ag12
ag12
ag13
ag12
ag12
ag13
ag12
ag12
ag12
ag12
ag12
ag12
ag13
ag13
ag13
ag12
ag12
ag12
ag13
ag12
ag12
ag13
ag12
ag13
ag13
ag12
ag12
ag13
ag12
ag12
ag12
ag12
ag12
ag12
ag12
ag12
ag12
ag12
ag13
ag12
ag12
ag12
ag13
ag12
ag12
ag12
ag12
ag12
ag12
ag12
ag12
ag13
ag12
ag12
ag12
ag13
ag12
ag12
ag13
ag12
ag12
ag12
ag12
ag13
ag13
ag13
ag13
ag13
ag13
ag12
ag12
ag13
ag12
ag12
ag12
ag12
ag12
ag12
ag13
ag12
ag12
ag12
ag12
ag13
ag12
ag12
ag13
ag12
ag13
ag13
ag13
ag13
ag12
ag13
ag12
ag12
ag12
ag12
ag12
ag12
ag12
ag12
ag12
ag12
ag12
ag12
ag12
ag12
ag12
ag12
ag12
ag12
ag12
ag12
ag13
ag12
ag13
ag13
ag12
ag12
ag13
ag12
ag12
ag12
ag12
ag13
ag12
ag12
ag12
ag13
ag12
ag12
ag12
ag12
ag12
ag12
ag13
ag12
ag12
ag13
ag12
ag13
ag12
ag13
ag12
ag12
ag12
ag12
ag12
ag12
ag12
ag12
ag13
ag13
ag13
ag12
ag12
ag12
ag12
ag13
ag13
ag12
ag13
ag12
ag12
ag13
ag12
ag12
ag12
ag12
ag12
ag12
ag13
ag13
ag13
ag12
ag12
ag12
ag12
ag12
ag13
ag12
ag12
ag13
ag13
ag13
ag12
ag12
ag13
ag13
ag12
ag12
ag12
ag12
ag12
ag12
ag13
ag12
ag13
ag12
ag13
ag12
ag12
ag13
ag13
ag12
ag12
ag12
ag12
ag12
ag12
ag12
ag12
ag12
ag12
ag13
ag12
ag12
ag12
ag13
ag13
ag12
ag13
ag12
ag12
ag13
ag13
ag13
ag12
ag12
ag12
ag13
ag12
ag13
ag12
ag12
ag13
ag13
ag12
ag12
ag13
ag12
ag12
ag12
ag13
ag12
ag12
ag12
ag12
ag12
ag12
ag13
ag12
ag13
ag13
ag12
ag12
ag12
ag12
ag13
ag12
ag13
ag12
ag12
ag13
ag12
ag13
ag12
ag12
ag12
ag12
ag13
ag13
ag12
ag12
ag13
ag12
ag12
ag13
ag13
ag13
ag12
ag13
ag13
ag12
ag12
ag12
ag12
ag13
ag12
ag12
ag12
ag12
ag13
ag12
ag12
ag12
ag12
ag12
ag12
ag12
ag12
ag12
ag12
ag12
ag12
ag12
ag13
ag13
ag12
ag12
ag13
ag12
ag13
ag12
ag12
ag13
ag12
ag12
ag12
ag12
ag12
ag12
ag13
ag12
ag12
ag12
ag12
ag12
ag13
ag12
ag12
ag12
ag13
ag13
ag12
ag13
ag12
ag12
ag12
ag13
ag12
ag12
ag12
ag12
ag12
ag12
ag13
ag13
ag12
ag12
ag12
ag12
ag13
ag12
ag13
ag13
ag12
ag12
ag13
ag12
ag12
ag12
ag12
ag12
ag12
ag13
ag13
ag12
ag12
ag12
ag12
ag12
ag12
ag12
ag12
ag12
ag13
ag12
ag13
ag13
ag12
ag12
ag12
ag13
ag12
ag12
ag12
ag12
ag12
ag12
ag12
ag12
ag12
ag13
ag12
ag13
ag13
ag13
ag13
ag12
ag12
ag12
ag13
ag13
ag12
ag12
ag12
ag12
ag12
ag12
ag12
ag12
ag12
ag12
ag12
ag13
ag12
ag13
ag12
ag12
ag13
ag13
ag12
ag13
ag12
ag13
ag13
ag12
ag13
ag12
ag12
ag12
ag12
ag12
ag12
ag12
ag13
ag12
ag12
ag12
ag12
ag13
ag12
ag12
ag12
ag13
ag13
ag12
ag13
ag12
ag13
ag12
ag12
ag12
ag12
ag13
ag12
ag12
ag12
ag12
ag12
ag13
ag13
ag12
ag12
ag13
ag13
ag12
ag13
ag13
ag12
ag13
ag12
ag12
ag12
ag13
ag12
ag12
ag12
ag12
ag12
ag13
ag13
ag13
ag12
ag12
ag13
ag12
ag12
ag12
ag12
ag13
ag13
ag12
ag13
ag12
ag12
ag12
ag12
ag12
ag12
ag12
ag13
ag12
ag12
ag12
ag13
ag12
ag12
ag13
ag13
ag13
ag12
ag13
ag13
ag12
ag12
ag12
ag12
ag13
ag12
ag12
ag13
ag12
ag12
ag13
ag13
ag13
ag12
ag13
ag12
ag12
ag12
ag12
ag13
ag12
ag12
ag12
ag12
ag12
ag13
ag13
ag12
ag13
ag13
ag12
ag12
ag12
ag12
ag12
ag12
ag13
ag12
ag12
ag12
ag12
ag12
ag12
ag13
ag12
ag13
ag12
ag13
ag12
ag12
ag12
ag12
ag12
ag12
ag12
ag12
ag13
ag13
ag12
ag13
ag12
ag13
ag13
ag12
ag13
ag13
ag12
ag12
ag12
ag12
ag12
ag12
ag12
ag12
ag12
ag13
ag12
ag13
ag13
ag12
ag12
ag13
ag12
ag12
ag13
ag12
ag12
ag12
ag13
ag13
ag12
ag12
ag12
ag12
ag13
ag12
ag12
ag12
ag12
ag12
ag12
ag12
ag12
ag12
ag12
ag12
ag12
ag12
ag12
ag12
ag12
ag13
ag13
ag12
ag12
ag12
ag12
ag13
ag13
ag12
ag13
ag12
ag12
ag12
ag12
ag12
ag12
ag13
ag12
ag12
ag12
ag13
ag13
ag12
ag12
ag12
ag12
ag12
ag12
ag12
ag12
ag13
ag12
ag13
ag13
ag12
ag12
ag12
ag12
ag12
ag13
ag13
ag12
ag12
ag13
ag12
ag12
ag12
ag13
ag12
ag13
ag12
ag13
ag13
ag13
ag12
ag12
ag12
ag12
ag13
ag12
ag12
ag12
ag13
ag12
ag13
ag12
ag12
ag13
ag12
ag12
ag13
ag12
ag12
ag13
ag12
ag12
ag12
ag12
ag12
ag12
ag12
ag12
ag12
ag12
ag13
ag13
ag12
ag12
ag12
ag12
ag12
ag13
ag12
ag12
ag12
ag12
ag13
ag12
ag12
ag13
ag12
ag13
ag12
ag12
ag12
ag13
ag13
ag13
ag13
ag12
ag12
ag12
ag13
ag12
ag13
ag13
ag12
ag12
ag13
ag12
ag12
ag12
ag12
ag12
ag13
ag12
ag13
ag13
ag13
ag13
ag12
ag12
ag12
ag12
ag12
ag12
ag12
ag12
ag12
ag12
ag12
ag12
ag13
ag12
ag13
ag12
ag12
ag12
ag12
ag12
ag12
ag12
ag12
ag12
ag13
ag12
ag13
ag13
ag13
ag12
ag12
ag12
ag13
ag12
ag13
ag13
ag12
ag12
ag12
ag12
ag12
ag13
ag12
ag12
ag12
ag12
ag12
ag12
ag12
ag12
ag12
ag12
ag13
ag12
ag12
ag13
ag12
ag13
ag12
ag12
ag13
ag13
ag13
ag12
ag13
ag12
ag12
ag13
ag12
ag12
ag12
ag12
ag12
ag13
ag12
ag12
ag13
ag13
ag13
ag13
ag12
ag12
ag12
ag12
ag12
ag12
ag12
ag13
ag12
ag12
ag12
ag13
ag12
ag12
ag12
ag13
ag13
ag13
ag12
ag13
ag12
ag12
ag13
ag12
ag12
ag12
ag12
ag12
ag12
ag12
ag13
ag12
ag12
ag12
ag12
ag12
ag12
ag13
ag12
ag13
ag13
ag12
ag13
ag12
ag12
ag12
ag13
ag12
ag13
ag13
ag13
ag12
ag12
ag12
ag13
ag13
ag12
ag12
ag12
ag12
ag12
ag13
ag12
ag12
ag12
ag12
ag12
ag12
ag12
ag13
ag12
ag12
ag12
ag12
ag13
ag12
ag13
ag13
ag12
ag12
ag12
ag12
ag12
ag12
ag12
ag12
ag13
ag12
ag12
ag12
ag12
ag12
ag12
ag12
ag12
ag12
ag12
ag13
ag12
ag12
ag12
ag12
ag12
ag13
ag12
ag13
ag12
ag12
ag12
ag12
ag12
ag13
ag13
ag12
ag12
ag13
ag12
ag12
ag12
ag12
ag12
ag12
ag12
ag13
ag12
ag13
ag12
ag12
ag12
ag12
ag12
ag12
ag12
ag12
ag13
ag13
ag12
ag12
ag13
ag12
ag12
ag13
ag12
ag12
ag12
ag13
ag12
ag13
ag12
ag13
ag13
ag13
ag13
ag12
ag12
ag12
ag13
ag12
ag12
ag12
ag12
ag13
ag12
ag12
ag12
ag12
ag12
ag13
ag12
ag13
ag12
ag12
ag12
ag12
ag12
ag13
ag12
ag13
ag12
ag12
ag13
ag12
ag13
ag12
ag12
ag12
ag12
ag12
ag13
ag12
ag12
ag13
ag12
ag12
ag12
ag13
ag13
ag13
ag13
ag12
ag13
ag12
ag12
ag13
ag12
ag12
ag12
ag12
ag12
ag12
ag13
ag12
ag12
ag13
ag13
ag13
ag13
ag12
ag12
ag13
ag12
ag12
ag12
ag12
ag13
ag12
ag13
ag13
ag12
ag13
ag12
ag13
ag12
ag12
ag13
ag13
ag13
ag12
ag12
ag13
ag13
ag12
ag12
ag12
ag12
ag12
ag12
ag12
ag13
ag12
ag13
ag12
ag12
ag12
ag12
ag12
ag12
ag12
ag12
ag13
ag12
ag12
ag12
ag12
ag13
ag12
ag12
ag12
ag12
ag12
ag12
ag13
ag12
ag12
ag12
ag12
ag12
ag12
ag12
ag12
ag13
ag13
ag12
ag13
ag12
ag12
ag12
ag12
ag13
ag12
ag13
ag12
ag12
ag12
ag12
ag12
ag12
ag12
ag13
ag13
ag12
ag12
ag12
ag13
ag13
ag13
ag12
ag13
ag12
ag13
ag13
ag12
ag12
ag12
ag12
ag12
ag12
ag12
ag12
ag12
ag12
ag13
ag12
ag13
ag12
ag12
ag12
ag12
ag12
ag13
ag12
ag12
ag13
ag12
ag12
ag12
ag12
ag12
ag12
ag13
ag13
ag12
ag13
ag12
ag12
ag12
ag13
ag12
ag12
ag12
ag13
ag12
ag12
ag13
ag12
ag12
ag12
ag12
ag12
ag13
ag12
ag13
ag12
ag12
ag12
ag12
ag12
ag12
ag12
ag13
ag12
ag12
ag12
atp16
Rp17
(dp18
S'tiles'
p19
(dp20
g13
g0
(ctile
Tile
p21
g2
Ntp22
Rp23
(dp24
S'ch_memory'
p25
g0
(cchar
Char
p26
g2
Ntp27
Rp28
(dp29
S'color'
p30
S'green'
p31
sS'symbol'
p32
S'"'
p33
sbsS'name'
p34
S'Jungle'
p35
sS'see_through'
p36
I01
sS'movement_cost'
p37
I1500
sS'ch_visible'
p38
g0
(g26
g2
Ntp39
Rp40
(dp41
g30
S'green'
p42
sg32
g33
sbsS'passable'
p43
I01
sbsg12
g0
(g21
g2
Ntp44
Rp45
(dp46
g25
g0
(g26
g2
Ntp47
Rp48
(dp49
g30
S'brown'
p50
sg32
S'.'
p51
sbsg34
S'Ground soil'
p52
sg36
I01
sg37
I1000
sg38
g0
(g26
g2
Ntp53
Rp54
(dp55
g30
S'brown'
p56
sg32
g51
sbsg43
I01
sbssS'rows'
p57
I46
sS'squares'
p58
(dp59
S'passage down'
p60
(I22
I38
tp61
ssS'cols'
p62
I80
sbssS'dungeons'
p63
(dp64
S'wild'
p65
(lp66
g0
(cdungeonproperties
DungeonNode
p67
g2
Ntp68
Rp69
(dp70
S'danger_level'
p71
I0
sS'tilemap_handle'
p72
g8
sS'passageways'
p73
(dp74
g60
(S'set-level'
p75
(S'main'
p76
I0
S'passage up'
p77
tp78
tp79
ssbasg76
(lp80
g0
(g67
g2
Ntp81
Rp82
(dp83
g71
I0
sg72
Nsg73
(dp84
g60
(S'next-level'
p85
tp86
sg77
(g75
(g65
I0
g60
tp87
tp88
ssbag0
(g67
g2
Ntp89
Rp90
(dp91
g71
I1
sg72
Nsg73
(dp92
g60
g86
sg77
(S'previous-level'
p93
tp94
ssbag0
(g67
g2
Ntp95
Rp96
(dp97
g71
I2
sg72
Nsg73
(dp98
g60
g86
sg77
g94
ssbag0
(g67
g2
Ntp99
Rp100
(dp101
g71
I3
sg72
Nsg73
(dp102
g60
g86
sg77
g94
ssbag0
(g67
g2
Ntp103
Rp104
(dp105
g71
I4
sg72
Nsg73
(dp106
g77
g94
ssbassb.