(lp1
ccopy_reg
_reconstructor
p2
(csquare
Square
p3
c__builtin__
object
p4
NtRp5
(dp6
S'y'
I0
sS'x'
I0
sS'memory_tile'
p7
g2
(ctile
Tile
p8
g4
NtRp9
(dp10
S'name'
p11
S'You have not seen this place yet'
p12
sS'see_through'
p13
I00
sS'destroyable'
p14
I00
sS'memory_ch'
p15
g2
(cchar
Char
p16
g4
NtRp17
(dp18
S'color'
p19
I0
sS'symbol'
p20
S' '
sbsS'passable'
p21
I00
sS'visible_ch'
p22
g2
(g16
g4
NtRp23
(dp24
g19
I0
sg20
S' '
sbsbsS'tile'
p25
g2
(g8
g4
NtRp26
(dp27
g11
S'Granite rock'
p28
sg13
I00
sg14
I01
sg15
g2
(g16
g4
NtRp29
(dp30
S'color'
p31
I2097408
sS'symbol'
p32
S'#'
sbsg21
I00
sg22
g2
(g16
g4
NtRp33
(dp34
g31
I2097408
sg32
S'#'
sbsbsS'creature'
p35
Nsbag2
(g3
g4
NtRp36
(dp37
S'y'
I0
sS'x'
I1
sg7
g9
sg25
g26
sg35
Nsbag2
(g3
g4
NtRp38
(dp39
S'y'
I0
sS'x'
I2
sg7
g9
sg25
g26
sg35
Nsbag2
(g3
g4
NtRp40
(dp41
S'y'
I0
sS'x'
I3
sg7
g9
sg25
g26
sg35
Nsbag2
(g3
g4
NtRp42
(dp43
S'y'
I0
sS'x'
I4
sg7
g9
sg25
g26
sg35
Nsbag2
(g3
g4
NtRp44
(dp45
S'y'
I0
sS'x'
I5
sg7
g9
sg25
g26
sg35
Nsbag2
(g3
g4
NtRp46
(dp47
S'y'
I0
sS'x'
I6
sg7
g9
sg25
g26
sg35
Nsbag2
(g3
g4
NtRp48
(dp49
S'y'
I0
sS'x'
I7
sg7
g9
sg25
g26
sg35
Nsbag2
(g3
g4
NtRp50
(dp51
S'y'
I0
sS'x'
I8
sg7
g9
sg25
g26
sg35
Nsbag2
(g3
g4
NtRp52
(dp53
S'y'
I0
sS'x'
I9
sg7
g9
sg25
g26
sg35
Nsbag2
(g3
g4
NtRp54
(dp55
S'y'
I0
sS'x'
I10
sg7
g9
sg25
g26
sg35
Nsbag2
(g3
g4
NtRp56
(dp57
S'y'
I0
sS'x'
I11
sg7
g9
sg25
g26
sg35
Nsbag2
(g3
g4
NtRp58
(dp59
S'y'
I0
sS'x'
I12
sg7
g9
sg25
g26
sg35
Nsbag2
(g3
g4
NtRp60
(dp61
S'y'
I0
sS'x'
I13
sg7
g9
sg25
g26
sg35
Nsbag2
(g3
g4
NtRp62
(dp63
S'y'
I0
sS'x'
I14
sg7
g9
sg25
g26
sg35
Nsbag2
(g3
g4
NtRp64
(dp65
S'y'
I0
sS'x'
I15
sg7
g9
sg25
g26
sg35
Nsbag2
(g3
g4
NtRp66
(dp67
S'y'
I0
sS'x'
I16
sg7
g9
sg25
g26
sg35
Nsbag2
(g3
g4
NtRp68
(dp69
S'y'
I0
sS'x'
I17
sg7
g9
sg25
g26
sg35
Nsbag2
(g3
g4
NtRp70
(dp71
S'y'
I0
sS'x'
I18
sg7
g9
sg25
g26
sg35
Nsbag2
(g3
g4
NtRp72
(dp73
S'y'
I0
sS'x'
I19
sg7
g9
sg25
g26
sg35
Nsbag2
(g3
g4
NtRp74
(dp75
S'y'
I0
sS'x'
I20
sg7
g9
sg25
g26
sg35
Nsbag2
(g3
g4
NtRp76
(dp77
S'y'
I0
sS'x'
I21
sg7
g9
sg25
g26
sg35
Nsbag2
(g3
g4
NtRp78
(dp79
S'y'
I0
sS'x'
I22
sg7
g9
sg25
g26
sg35
Nsbag2
(g3
g4
NtRp80
(dp81
S'y'
I0
sS'x'
I23
sg7
g9
sg25
g26
sg35
Nsbag2
(g3
g4
NtRp82
(dp83
S'y'
I0
sS'x'
I24
sg7
g9
sg25
g26
sg35
Nsbag2
(g3
g4
NtRp84
(dp85
S'y'
I0
sS'x'
I25
sg7
g9
sg25
g26
sg35
Nsbag2
(g3
g4
NtRp86
(dp87
S'y'
I0
sS'x'
I26
sg7
g9
sg25
g26
sg35
Nsbag2
(g3
g4
NtRp88
(dp89
S'y'
I0
sS'x'
I27
sg7
g9
sg25
g26
sg35
Nsbag2
(g3
g4
NtRp90
(dp91
S'y'
I0
sS'x'
I28
sg7
g9
sg25
g26
sg35
Nsbag2
(g3
g4
NtRp92
(dp93
S'y'
I0
sS'x'
I29
sg7
g9
sg25
g26
sg35
Nsbag2
(g3
g4
NtRp94
(dp95
S'y'
I0
sS'x'
I30
sg7
g9
sg25
g26
sg35
Nsbag2
(g3
g4
NtRp96
(dp97
S'y'
I0
sS'x'
I31
sg7
g9
sg25
g26
sg35
Nsbag2
(g3
g4
NtRp98
(dp99
S'y'
I0
sS'x'
I32
sg7
g9
sg25
g26
sg35
Nsbag2
(g3
g4
NtRp100
(dp101
S'y'
I0
sS'x'
I33
sg7
g9
sg25
g26
sg35
Nsbag2
(g3
g4
NtRp102
(dp103
S'y'
I0
sS'x'
I34
sg7
g9
sg25
g26
sg35
Nsbag2
(g3
g4
NtRp104
(dp105
S'y'
I0
sS'x'
I35
sg7
g9
sg25
g26
sg35
Nsbag2
(g3
g4
NtRp106
(dp107
S'y'
I0
sS'x'
I36
sg7
g9
sg25
g26
sg35
Nsbag2
(g3
g4
NtRp108
(dp109
S'y'
I0
sS'x'
I37
sg7
g9
sg25
g26
sg35
Nsbag2
(g3
g4
NtRp110
(dp111
S'y'
I0
sS'x'
I38
sg7
g9
sg25
g26
sg35
Nsbag2
(g3
g4
NtRp112
(dp113
S'y'
I0
sS'x'
I39
sg7
g9
sg25
g26
sg35
Nsbag2
(g3
g4
NtRp114
(dp115
S'y'
I0
sS'x'
I40
sg7
g9
sg25
g26
sg35
Nsbag2
(g3
g4
NtRp116
(dp117
S'y'
I0
sS'x'
I41
sg7
g9
sg25
g26
sg35
Nsbag2
(g3
g4
NtRp118
(dp119
S'y'
I0
sS'x'
I42
sg7
g9
sg25
g26
sg35
Nsbag2
(g3
g4
NtRp120
(dp121
S'y'
I0
sS'x'
I43
sg7
g9
sg25
g26
sg35
Nsbag2
(g3
g4
NtRp122
(dp123
S'y'
I0
sS'x'
I44
sg7
g9
sg25
g26
sg35
Nsbag2
(g3
g4
NtRp124
(dp125
S'y'
I0
sS'x'
I45
sg7
g9
sg25
g26
sg35
Nsbag2
(g3
g4
NtRp126
(dp127
S'y'
I0
sS'x'
I46
sg7
g9
sg25
g26
sg35
Nsbag2
(g3
g4
NtRp128
(dp129
S'y'
I0
sS'x'
I47
sg7
g9
sg25
g26
sg35
Nsbag2
(g3
g4
NtRp130
(dp131
S'y'
I0
sS'x'
I48
sg7
g9
sg25
g26
sg35
Nsbag2
(g3
g4
NtRp132
(dp133
S'y'
I0
sS'x'
I49
sg7
g9
sg25
g26
sg35
Nsbag2
(g3
g4
NtRp134
(dp135
S'y'
I0
sS'x'
I50
sg7
g9
sg25
g26
sg35
Nsbag2
(g3
g4
NtRp136
(dp137
S'y'
I0
sS'x'
I51
sg7
g9
sg25
g26
sg35
Nsbag2
(g3
g4
NtRp138
(dp139
S'y'
I0
sS'x'
I52
sg7
g9
sg25
g26
sg35
Nsbag2
(g3
g4
NtRp140
(dp141
S'y'
I0
sS'x'
I53
sg7
g9
sg25
g26
sg35
Nsbag2
(g3
g4
NtRp142
(dp143
S'y'
I0
sS'x'
I54
sg7
g9
sg25
g26
sg35
Nsbag2
(g3
g4
NtRp144
(dp145
S'y'
I0
sS'x'
I55
sg7
g9
sg25
g26
sg35
Nsbag2
(g3
g4
NtRp146
(dp147
S'y'
I0
sS'x'
I56
sg7
g9
sg25
g26
sg35
Nsbag2
(g3
g4
NtRp148
(dp149
S'y'
I0
sS'x'
I57
sg7
g9
sg25
g26
sg35
Nsbag2
(g3
g4
NtRp150
(dp151
S'y'
I0
sS'x'
I58
sg7
g9
sg25
g26
sg35
Nsbag2
(g3
g4
NtRp152
(dp153
S'y'
I0
sS'x'
I59
sg7
g9
sg25
g26
sg35
Nsbag2
(g3
g4
NtRp154
(dp155
S'y'
I0
sS'x'
I60
sg7
g9
sg25
g26
sg35
Nsbag2
(g3
g4
NtRp156
(dp157
S'y'
I0
sS'x'
I61
sg7
g9
sg25
g26
sg35
Nsbag2
(g3
g4
NtRp158
(dp159
S'y'
I0
sS'x'
I62
sg7
g9
sg25
g26
sg35
Nsbag2
(g3
g4
NtRp160
(dp161
S'y'
I0
sS'x'
I63
sg7
g9
sg25
g26
sg35
Nsbag2
(g3
g4
NtRp162
(dp163
S'y'
I0
sS'x'
I64
sg7
g9
sg25
g26
sg35
Nsbag2
(g3
g4
NtRp164
(dp165
S'y'
I0
sS'x'
I65
sg7
g9
sg25
g26
sg35
Nsbag2
(g3
g4
NtRp166
(dp167
S'y'
I0
sS'x'
I66
sg7
g9
sg25
g26
sg35
Nsbag2
(g3
g4
NtRp168
(dp169
S'y'
I0
sS'x'
I67
sg7
g9
sg25
g26
sg35
Nsbag2
(g3
g4
NtRp170
(dp171
S'y'
I0
sS'x'
I68
sg7
g9
sg25
g26
sg35
Nsbag2
(g3
g4
NtRp172
(dp173
S'y'
I0
sS'x'
I69
sg7
g9
sg25
g26
sg35
Nsbag2
(g3
g4
NtRp174
(dp175
S'y'
I0
sS'x'
I70
sg7
g9
sg25
g26
sg35
Nsbag2
(g3
g4
NtRp176
(dp177
S'y'
I0
sS'x'
I71
sg7
g9
sg25
g26
sg35
Nsbag2
(g3
g4
NtRp178
(dp179
S'y'
I0
sS'x'
I72
sg7
g9
sg25
g26
sg35
Nsbag2
(g3
g4
NtRp180
(dp181
S'y'
I0
sS'x'
I73
sg7
g9
sg25
g26
sg35
Nsbag2
(g3
g4
NtRp182
(dp183
S'y'
I0
sS'x'
I74
sg7
g9
sg25
g26
sg35
Nsbag2
(g3
g4
NtRp184
(dp185
S'y'
I0
sS'x'
I75
sg7
g9
sg25
g26
sg35
Nsbag2
(g3
g4
NtRp186
(dp187
S'y'
I0
sS'x'
I76
sg7
g9
sg25
g26
sg35
Nsbag2
(g3
g4
NtRp188
(dp189
S'y'
I0
sS'x'
I77
sg7
g9
sg25
g26
sg35
Nsbag2
(g3
g4
NtRp190
(dp191
S'y'
I0
sS'x'
I78
sg7
g9
sg25
g26
sg35
Nsbag2
(g3
g4
NtRp192
(dp193
S'y'
I0
sS'x'
I79
sg7
g9
sg25
g26
sg35
Nsbag2
(g3
g4
NtRp194
(dp195
S'y'
I1
sS'x'
I0
sg7
g9
sg25
g26
sg35
Nsbag2
(g3
g4
NtRp196
(dp197
S'y'
I1
sS'x'
I1
sg7
g9
sg25
g26
sg35
Nsbag2
(g3
g4
NtRp198
(dp199
S'y'
I1
sS'x'
I2
sg7
g9
sg25
g26
sg35
Nsbag2
(g3
g4
NtRp200
(dp201
S'y'
I1
sS'x'
I3
sg7
g9
sg25
g2
(g8
g4
NtRp202
(dp203
g11
S'Wall'
p204
sg13
I00
sg14
I01
sg15
g2
(g16
g4
NtRp205
(dp206
g31
I2097408
sg32
S'#'
sbsg21
I00
sg22
g2
(g16
g4
NtRp207
(dp208
g31
I1049600
sg32
S'#'
sbsbsg35
Nsbag2
(g3
g4
NtRp209
(dp210
S'y'
I1
sS'x'
I4
sg7
g9
sg25
g202
sg35
Nsbag2
(g3
g4
NtRp211
(dp212
S'y'
I1
sS'x'
I5
sg7
g9
sg25
g202
sg35
Nsbag2
(g3
g4
NtRp213
(dp214
S'y'
I1
sS'x'
I6
sg7
g9
sg25
g202
sg35
Nsbag2
(g3
g4
NtRp215
(dp216
S'y'
I1
sS'x'
I7
sg7
g9
sg25
g202
sg35
Nsbag2
(g3
g4
NtRp217
(dp218
S'y'
I1
sS'x'
I8
sg7
g9
sg25
g202
sg35
Nsbag2
(g3
g4
NtRp219
(dp220
S'y'
I1
sS'x'
I9
sg7
g9
sg25
g202
sg35
Nsbag2
(g3
g4
NtRp221
(dp222
S'y'
I1
sS'x'
I10
sg7
g9
sg25
g202
sg35
Nsbag2
(g3
g4
NtRp223
(dp224
S'y'
I1
sS'x'
I11
sg7
g9
sg25
g202
sg35
Nsbag2
(g3
g4
NtRp225
(dp226
S'y'
I1
sS'x'
I12
sg7
g9
sg25
g202
sg35
Nsbag2
(g3
g4
NtRp227
(dp228
S'y'
I1
sS'x'
I13
sg7
g9
sg25
g202
sg35
Nsbag2
(g3
g4
NtRp229
(dp230
S'y'
I1
sS'x'
I14
sg7
g9
sg25
g202
sg35
Nsbag2
(g3
g4
NtRp231
(dp232
S'y'
I1
sS'x'
I15
sg7
g9
sg25
g202
sg35
Nsbag2
(g3
g4
NtRp233
(dp234
S'y'
I1
sS'x'
I16
sg7
g9
sg25
g202
sg35
Nsbag2
(g3
g4
NtRp235
(dp236
S'y'
I1
sS'x'
I17
sg7
g9
sg25
g202
sg35
Nsbag2
(g3
g4
NtRp237
(dp238
S'y'
I1
sS'x'
I18
sg7
g9
sg25
g202
sg35
Nsbag2
(g3
g4
NtRp239
(dp240
S'y'
I1
sS'x'
I19
sg7
g9
sg25
g202
sg35
Nsbag2
(g3
g4
NtRp241
(dp242
S'y'
I1
sS'x'
I20
sg7
g9
sg25
g202
sg35
Nsbag2
(g3
g4
NtRp243
(dp244
S'y'
I1
sS'x'
I21
sg7
g9
sg25
g202
sg35
Nsbag2
(g3
g4
NtRp245
(dp246
S'y'
I1
sS'x'
I22
sg7
g9
sg25
g202
sg35
Nsbag2
(g3
g4
NtRp247
(dp248
S'y'
I1
sS'x'
I23
sg7
g9
sg25
g202
sg35
Nsbag2
(g3
g4
NtRp249
(dp250
S'y'
I1
sS'x'
I24
sg7
g9
sg25
g202
sg35
Nsbag2
(g3
g4
NtRp251
(dp252
S'y'
I1
sS'x'
I25
sg7
g9
sg25
g202
sg35
Nsbag2
(g3
g4
NtRp253
(dp254
S'y'
I1
sS'x'
I26
sg7
g9
sg25
g202
sg35
Nsbag2
(g3
g4
NtRp255
(dp256
S'y'
I1
sS'x'
I27
sg7
g9
sg25
g202
sg35
Nsbag2
(g3
g4
NtRp257
(dp258
S'y'
I1
sS'x'
I28
sg7
g9
sg25
g202
sg35
Nsbag2
(g3
g4
NtRp259
(dp260
S'y'
I1
sS'x'
I29
sg7
g9
sg25
g202
sg35
Nsbag2
(g3
g4
NtRp261
(dp262
S'y'
I1
sS'x'
I30
sg7
g9
sg25
g202
sg35
Nsbag2
(g3
g4
NtRp263
(dp264
S'y'
I1
sS'x'
I31
sg7
g9
sg25
g202
sg35
Nsbag2
(g3
g4
NtRp265
(dp266
S'y'
I1
sS'x'
I32
sg7
g9
sg25
g202
sg35
Nsbag2
(g3
g4
NtRp267
(dp268
S'y'
I1
sS'x'
I33
sg7
g9
sg25
g202
sg35
Nsbag2
(g3
g4
NtRp269
(dp270
S'y'
I1
sS'x'
I34
sg7
g9
sg25
g202
sg35
Nsbag2
(g3
g4
NtRp271
(dp272
S'y'
I1
sS'x'
I35
sg7
g9
sg25
g202
sg35
Nsbag2
(g3
g4
NtRp273
(dp274
S'y'
I1
sS'x'
I36
sg7
g9
sg25
g202
sg35
Nsbag2
(g3
g4
NtRp275
(dp276
S'y'
I1
sS'x'
I37
sg7
g9
sg25
g202
sg35
Nsbag2
(g3
g4
NtRp277
(dp278
S'y'
I1
sS'x'
I38
sg7
g9
sg25
g26
sg35
Nsbag2
(g3
g4
NtRp279
(dp280
S'y'
I1
sS'x'
I39
sg7
g9
sg25
g26
sg35
Nsbag2
(g3
g4
NtRp281
(dp282
S'y'
I1
sS'x'
I40
sg7
g9
sg25
g26
sg35
Nsbag2
(g3
g4
NtRp283
(dp284
S'y'
I1
sS'x'
I41
sg7
g9
sg25
g26
sg35
Nsbag2
(g3
g4
NtRp285
(dp286
S'y'
I1
sS'x'
I42
sg7
g9
sg25
g26
sg35
Nsbag2
(g3
g4
NtRp287
(dp288
S'y'
I1
sS'x'
I43
sg7
g9
sg25
g26
sg35
Nsbag2
(g3
g4
NtRp289
(dp290
S'y'
I1
sS'x'
I44
sg7
g9
sg25
g26
sg35
Nsbag2
(g3
g4
NtRp291
(dp292
S'y'
I1
sS'x'
I45
sg7
g9
sg25
g26
sg35
Nsbag2
(g3
g4
NtRp293
(dp294
S'y'
I1
sS'x'
I46
sg7
g9
sg25
g26
sg35
Nsbag2
(g3
g4
NtRp295
(dp296
S'y'
I1
sS'x'
I47
sg7
g9
sg25
g26
sg35
Nsbag2
(g3
g4
NtRp297
(dp298
S'y'
I1
sS'x'
I48
sg7
g9
sg25
g26
sg35
Nsbag2
(g3
g4
NtRp299
(dp300
S'y'
I1
sS'x'
I49
sg7
g9
sg25
g26
sg35
Nsbag2
(g3
g4
NtRp301
(dp302
S'y'
I1
sS'x'
I50
sg7
g9
sg25
g26
sg35
Nsbag2
(g3
g4
NtRp303
(dp304
S'y'
I1
sS'x'
I51
sg7
g9
sg25
g26
sg35
Nsbag2
(g3
g4
NtRp305
(dp306
S'y'
I1
sS'x'
I52
sg7
g9
sg25
g26
sg35
Nsbag2
(g3
g4
NtRp307
(dp308
S'y'
I1
sS'x'
I53
sg7
g9
sg25
g26
sg35
Nsbag2
(g3
g4
NtRp309
(dp310
S'y'
I1
sS'x'
I54
sg7
g9
sg25
g26
sg35
Nsbag2
(g3
g4
NtRp311
(dp312
S'y'
I1
sS'x'
I55
sg7
g9
sg25
g26
sg35
Nsbag2
(g3
g4
NtRp313
(dp314
S'y'
I1
sS'x'
I56
sg7
g9
sg25
g26
sg35
Nsbag2
(g3
g4
NtRp315
(dp316
S'y'
I1
sS'x'
I57
sg7
g9
sg25
g202
sg35
Nsbag2
(g3
g4
NtRp317
(dp318
S'y'
I1
sS'x'
I58
sg7
g9
sg25
g202
sg35
Nsbag2
(g3
g4
NtRp319
(dp320
S'y'
I1
sS'x'
I59
sg7
g9
sg25
g202
sg35
Nsbag2
(g3
g4
NtRp321
(dp322
S'y'
I1
sS'x'
I60
sg7
g9
sg25
g202
sg35
Nsbag2
(g3
g4
NtRp323
(dp324
S'y'
I1
sS'x'
I61
sg7
g9
sg25
g202
sg35
Nsbag2
(g3
g4
NtRp325
(dp326
S'y'
I1
sS'x'
I62
sg7
g9
sg25
g202
sg35
Nsbag2
(g3
g4
NtRp327
(dp328
S'y'
I1
sS'x'
I63
sg7
g9
sg25
g202
sg35
Nsbag2
(g3
g4
NtRp329
(dp330
S'y'
I1
sS'x'
I64
sg7
g9
sg25
g202
sg35
Nsbag2
(g3
g4
NtRp331
(dp332
S'y'
I1
sS'x'
I65
sg7
g9
sg25
g202
sg35
Nsbag2
(g3
g4
NtRp333
(dp334
S'y'
I1
sS'x'
I66
sg7
g9
sg25
g202
sg35
Nsbag2
(g3
g4
NtRp335
(dp336
S'y'
I1
sS'x'
I67
sg7
g9
sg25
g26
sg35
Nsbag2
(g3
g4
NtRp337
(dp338
S'y'
I1
sS'x'
I68
sg7
g9
sg25
g26
sg35
Nsbag2
(g3
g4
NtRp339
(dp340
S'y'
I1
sS'x'
I69
sg7
g9
sg25
g26
sg35
Nsbag2
(g3
g4
NtRp341
(dp342
S'y'
I1
sS'x'
I70
sg7
g9
sg25
g26
sg35
Nsbag2
(g3
g4
NtRp343
(dp344
S'y'
I1
sS'x'
I71
sg7
g9
sg25
g26
sg35
Nsbag2
(g3
g4
NtRp345
(dp346
S'y'
I1
sS'x'
I72
sg7
g9
sg25
g26
sg35
Nsbag2
(g3
g4
NtRp347
(dp348
S'y'
I1
sS'x'
I73
sg7
g9
sg25
g26
sg35
Nsbag2
(g3
g4
NtRp349
(dp350
S'y'
I1
sS'x'
I74
sg7
g9
sg25
g26
sg35
Nsbag2
(g3
g4
NtRp351
(dp352
S'y'
I1
sS'x'
I75
sg7
g9
sg25
g26
sg35
Nsbag2
(g3
g4
NtRp353
(dp354
S'y'
I1
sS'x'
I76
sg7
g9
sg25
g26
sg35
Nsbag2
(g3
g4
NtRp355
(dp356
S'y'
I1
sS'x'
I77
sg7
g9
sg25
g26
sg35
Nsbag2
(g3
g4
NtRp357
(dp358
S'y'
I1
sS'x'
I78
sg7
g9
sg25
g26
sg35
Nsbag2
(g3
g4
NtRp359
(dp360
S'y'
I1
sS'x'
I79
sg7
g9
sg25
g26
sg35
Nsbag2
(g3
g4
NtRp361
(dp362
S'y'
I2
sS'x'
I0
sg7
g9
sg25
g26
sg35
Nsbag2
(g3
g4
NtRp363
(dp364
S'y'
I2
sS'x'
I1
sg7
g9
sg25
g26
sg35
Nsbag2
(g3
g4
NtRp365
(dp366
S'y'
I2
sS'x'
I2
sg7
g9
sg25
g26
sg35
Nsbag2
(g3
g4
NtRp367
(dp368
S'y'
I2
sS'x'
I3
sg7
g9
sg25
g202
sg35
Nsbag2
(g3
g4
NtRp369
(dp370
S'y'
I2
sS'x'
I4
sg7
g9
sg25
g2
(g8
g4
NtRp371
(dp372
g11
S'Dungeon floor'
p373
sg13
I01
sg14
I00
sg15
g2
(g16
g4
NtRp374
(dp375
S'color'
p376
I0
sS'symbol'
p377
S'.'
sbsg21
I01
sg22
g2
(g16
g4
NtRp378
(dp379
g376
I0
sg377
S'.'
sbsbsg35
Nsbag2
(g3
g4
NtRp380
(dp381
S'y'
I2
sS'x'
I5
sg7
g9
sg25
g371
sg35
Nsbag2
(g3
g4
NtRp382
(dp383
S'y'
I2
sS'x'
I6
sg7
g9
sg25
g371
sg35
Nsbag2
(g3
g4
NtRp384
(dp385
S'y'
I2
sS'x'
I7
sg7
g9
sg25
g371
sg35
Nsbag2
(g3
g4
NtRp386
(dp387
S'y'
I2
sS'x'
I8
sg7
g9
sg25
g371
sg35
Nsbag2
(g3
g4
NtRp388
(dp389
S'y'
I2
sS'x'
I9
sg7
g9
sg25
g371
sg35
Nsbag2
(g3
g4
NtRp390
(dp391
S'y'
I2
sS'x'
I10
sg7
g9
sg25
g371
sg35
Nsbag2
(g3
g4
NtRp392
(dp393
S'y'
I2
sS'x'
I11
sg7
g9
sg25
g202
sg35
Nsbag2
(g3
g4
NtRp394
(dp395
S'y'
I2
sS'x'
I12
sg7
g9
sg25
g202
sg35
Nsbag2
(g3
g4
NtRp396
(dp397
S'y'
I2
sS'x'
I13
sg7
g9
sg25
g371
sg35
Nsbag2
(g3
g4
NtRp398
(dp399
S'y'
I2
sS'x'
I14
sg7
g9
sg25
g202
sg35
Nsbag2
(g3
g4
NtRp400
(dp401
S'y'
I2
sS'x'
I15
sg7
g9
sg25
g202
sg35
Nsbag2
(g3
g4
NtRp402
(dp403
S'y'
I2
sS'x'
I16
sg7
g9
sg25
g371
sg35
Nsbag2
(g3
g4
NtRp404
(dp405
S'y'
I2
sS'x'
I17
sg7
g9
sg25
g371
sg35
Nsbag2
(g3
g4
NtRp406
(dp407
S'y'
I2
sS'x'
I18
sg7
g9
sg25
g371
sg35
Nsbag2
(g3
g4
NtRp408
(dp409
S'y'
I2
sS'x'
I19
sg7
g9
sg25
g371
sg35
Nsbag2
(g3
g4
NtRp410
(dp411
S'y'
I2
sS'x'
I20
sg7
g9
sg25
g371
sg35
Nsbag2
(g3
g4
NtRp412
(dp413
S'y'
I2
sS'x'
I21
sg7
g9
sg25
g371
sg35
Nsbag2
(g3
g4
NtRp414
(dp415
S'y'
I2
sS'x'
I22
sg7
g9
sg25
g371
sg35
Nsbag2
(g3
g4
NtRp416
(dp417
S'y'
I2
sS'x'
I23
sg7
g9
sg25
g371
sg35
Nsbag2
(g3
g4
NtRp418
(dp419
S'y'
I2
sS'x'
I24
sg7
g9
sg25
g371
sg35
Nsbag2
(g3
g4
NtRp420
(dp421
S'y'
I2
sS'x'
I25
sg7
g9
sg25
g371
sg35
Nsbag2
(g3
g4
NtRp422
(dp423
S'y'
I2
sS'x'
I26
sg7
g9
sg25
g371
sg35
g2
(cmonster
Monster
p424
g4
NtRp425
(dp426
S'square'
p427
g422
sS'hostile'
p428
I00
sS'g'
g2
(cgame
Game
p429
g4
NtRp430
(dp431
S'turn_counter'
p432
I4
sS'p'
g2
(cplayer
Player
p433
g4
NtRp434
(dp435
g427
g2
(g3
g4
NtRp436
(dp437
S'y'
I11
sS'x'
I25
sg7
g9
sg25
g371
sg35
g434
sbsg428
I00
sS'g'
g430
sS'dmg'
p438
I5
sS'hp'
p439
I50
sS'l'
g2
(clevel
Level
p440
g4
NtRp441
(dp442
S'map'
p443
g1
sS'rows'
p444
I21
sS'g'
g430
sS'cols'
p445
I80
sS'squares'
p446
(dp447
S'ds'
p448
g2
(g3
g4
NtRp449
(dp450
S'y'
I14
sS'x'
I65
sg7
g9
sg25
g2
(g8
g4
NtRp451
(dp452
g11
S'Down staircase'
p453
sg13
I01
sg14
I00
sg15
g2
(g16
g4
NtRp454
(dp455
g31
I2097408
sg32
S'>'
sbsg21
I01
sg22
g2
(g16
g4
NtRp456
(dp457
g31
I512
sg32
S'>'
sbsbsg35
NsbsS'us'
p458
g2
(g3
g4
NtRp459
(dp460
S'y'
I15
sS'x'
I74
sg7
g9
sg25
g2
(g8
g4
NtRp461
(dp462
g11
S'Up staircase'
p463
sg13
I01
sg14
I01
sg15
g2
(g16
g4
NtRp464
(dp465
g31
I2097408
sg32
S'<'
sbsg21
I01
sg22
g2
(g16
g4
NtRp466
(dp467
S'color'
p468
I512
sS'symbol'
p469
S'<'
sbsbsg35
NsbssS'id'
p470
I1
sS'creatures'
p471
(lp472
g2
(g424
g4
NtRp473
(dp474
g427
g2
(g3
g4
NtRp475
(dp476
S'y'
I10
sS'x'
I25
sg7
g9
sg25
g371
sg35
g473
sbsg428
I00
sS'g'
g430
sg438
I1
sg439
I10
sS'l'
g441
sS'visibility'
p477
(lp478
sS'n'
S'him'
p479
sS'ch'
p480
g2
(g16
g4
NtRp481
(dp482
S'color'
p483
I2097920
sS'symbol'
p484
S'@'
sbsS'sight'
p485
I200
sS'name'
p486
S'green bandit'
p487
sbag2
(g424
g4
NtRp488
(dp489
g427
g2
(g3
g4
NtRp490
(dp491
S'y'
I12
sS'x'
I21
sg7
g9
sg25
g371
sg35
g488
sbsg428
I00
sS'g'
g430
sg438
I1
sg439
I10
sS'l'
g441
sg477
(lp492
sS'n'
g479
sg480
g2
(g16
g4
NtRp493
(dp494
g483
I2097920
sg484
S'g'
sbsg485
I200
sg486
S'green goblin'
p495
sbag2
(g424
g4
NtRp496
(dp497
g427
g2
(g3
g4
NtRp498
(dp499
S'y'
I10
sS'x'
I62
sg7
g9
sg25
g371
sg35
g496
sbsg428
I00
sS'g'
g430
sg438
I1
sg439
I10
sS'l'
g441
sg477
(lp500
sS'n'
g479
sg480
g2
(g16
g4
NtRp501
(dp502
g483
I1024
sg484
S'k'
sbsg485
I200
sg486
S'yellow kobold'
p503
sbag2
(g424
g4
NtRp504
(dp505
g427
g2
(g3
g4
NtRp506
(dp507
S'y'
I7
sS'x'
I25
sg7
g9
sg25
g371
sg35
g504
sbsg428
I00
sS'g'
g430
sg438
I1
sg439
I10
sS'l'
g441
sg477
(lp508
sS'n'
S'it'
p509
sg480
g2
(g16
g4
NtRp510
(dp511
g483
I1024
sg484
S'c'
sbsg485
I200
sg486
S'yellow centipede'
p512
sbag2
(g424
g4
NtRp513
(dp514
g427
g2
(g3
g4
NtRp515
(dp516
S'y'
I13
sS'x'
I71
sg7
g9
sg25
g371
sg35
g513
sbsg428
I00
sS'g'
g430
sg438
I1
sg439
I10
sS'l'
g441
sg477
(lp517
sS'n'
g509
sg480
g2
(g16
g4
NtRp518
(dp519
g483
I2097408
sg484
S'c'
sbsg485
I200
sg486
S'black centipede'
p520
sbag2
(g424
g4
NtRp521
(dp522
g427
g2
(g3
g4
NtRp523
(dp524
S'y'
I12
sS'x'
I25
sg7
g9
sg25
g371
sg35
g521
sbsg428
I00
sS'g'
g430
sg438
I1
sg439
I5
sS'l'
g441
sg477
(lp525
sS'n'
g509
sg480
g2
(g16
g4
NtRp526
(dp527
g483
I1024
sg484
S'c'
sbsg485
I200
sg486
S'yellow centipede'
p528
sbag2
(g424
g4
NtRp529
(dp530
g427
g2
(g3
g4
NtRp531
(dp532
S'y'
I9
sS'x'
I42
sg7
g9
sg25
g371
sg35
g529
sbsg428
I00
sS'g'
g430
sg438
I1
sg439
I10
sS'l'
g441
sg477
(lp533
sS'n'
g509
sg480
g2
(g16
g4
NtRp534
(dp535
g483
I2097920
sg484
S'c'
sbsg485
I200
sg486
S'green centipede'
p536
sbag2
(g424
g4
NtRp537
(dp538
g427
g2
(g3
g4
NtRp539
(dp540
S'y'
I5
sS'x'
I67
sg7
g9
sg25
g371
sg35
g537
sbsg428
I00
sS'g'
g430
sg438
I1
sg439
I10
sS'l'
g441
sg477
(lp541
sS'n'
S'it'
p542
sg480
g2
(g16
g4
NtRp543
(dp544
g483
I2097408
sg484
S'j'
sbsg485
I200
sg486
S'black jelly'
p545
sbag2
(g424
g4
NtRp546
(dp547
g427
g2
(g3
g4
NtRp548
(dp549
S'y'
I8
sS'x'
I13
sg7
g9
sg25
g371
sg35
g546
sbsg428
I00
sS'g'
g430
sg438
I1
sg439
I10
sS'l'
g441
sg477
(lp550
sS'n'
g479
sg480
g2
(g16
g4
NtRp551
(dp552
g483
I2097920
sg484
S'@'
sbsg485
I200
sg486
S'green bandit'
p553
sbag2
(g424
g4
NtRp554
(dp555
g427
g2
(g3
g4
NtRp556
(dp557
S'y'
I9
sS'x'
I55
sg7
g9
sg25
g371
sg35
g554
sbsg428
I00
sS'g'
g430
sg438
I1
sg439
I10
sS'l'
g441
sg477
(lp558
sS'n'
g479
sg480
g2
(g16
g4
NtRp559
(dp560
g483
I2097408
sg484
S'k'
sbsg485
I200
sg486
S'black kobold'
p561
sbag2
(g424
g4
NtRp562
(dp563
g427
g2
(g3
g4
NtRp564
(dp565
S'y'
I13
sS'x'
I53
sg7
g9
sg25
g371
sg35
g562
sbsg428
I00
sS'g'
g430
sg438
I1
sg439
I10
sS'l'
g441
sg477
(lp566
sS'n'
g479
sg480
g2
(g16
g4
NtRp567
(dp568
g483
I2097920
sg484
S'@'
sbsg485
I200
sg486
S'green bandit'
p569
sbag2
(g424
g4
NtRp570
(dp571
g427
g2
(g3
g4
NtRp572
(dp573
S'y'
I8
sS'x'
I69
sg7
g9
sg25
g371
sg35
g570
sbsg428
I00
sS'g'
g430
sg438
I1
sg439
I10
sS'l'
g441
sg477
(lp574
sS'n'
g509
sg480
g2
(g16
g4
NtRp575
(dp576
g483
I2097920
sg484
S'c'
sbsg485
I200
sg486
S'green centipede'
p577
sbag2
(g424
g4
NtRp578
(dp579
g427
g2
(g3
g4
NtRp580
(dp581
S'y'
I14
sS'x'
I61
sg7
g9
sg25
g371
sg35
g578
sbsg428
I00
sS'g'
g430
sg438
I1
sg439
I10
sS'l'
g441
sg477
(lp582
sS'n'
g479
sg480
g2
(g16
g4
NtRp583
(dp584
g483
I2097408
sg484
S'g'
sbsg485
I200
sg486
S'black goblin'
p585
sbag425
ag2
(g424
g4
NtRp586
(dp587
g427
g2
(g3
g4
NtRp588
(dp589
S'y'
I11
sS'x'
I21
sg7
g9
sg25
g371
sg35
g586
sbsg428
I00
sS'g'
g430
sg438
I1
sg439
I10
sS'l'
g441
sg477
(lp590
sS'n'
g509
sg480
g2
(g16
g4
NtRp591
(dp592
g483
I2097920
sg484
S'c'
sbsg485
I200
sg486
S'green centipede'
p593
sbag2
(g424
g4
NtRp594
(dp595
g427
g2
(g3
g4
NtRp596
(dp597
S'y'
I10
sS'x'
I68
sg7
g9
sg25
g371
sg35
g594
sbsg428
I00
sS'g'
g430
sg438
I1
sg439
I10
sS'l'
g441
sg477
(lp598
sS'n'
g479
sg480
g2
(g16
g4
NtRp599
(dp600
g483
I2097920
sg484
S'k'
sbsg485
I200
sg486
S'green kobold'
p601
sbag2
(g424
g4
NtRp602
(dp603
g427
g2
(g3
g4
NtRp604
(dp605
S'y'
I15
sS'x'
I53
sg7
g9
sg25
g371
sg35
g602
sbsg428
I00
sS'g'
g430
sg438
I1
sg439
I10
sS'l'
g441
sg477
(lp606
sS'n'
g479
sg480
g2
(g16
g4
NtRp607
(dp608
g483
I1280
sg484
S'@'
sbsg485
I200
sg486
S'blue bandit'
p609
sbag2
(g424
g4
NtRp610
(dp611
g427
g2
(g3
g4
NtRp612
(dp613
S'y'
I10
sS'x'
I29
sg7
g9
sg25
g371
sg35
g610
sbsg428
I00
sS'g'
g430
sg438
I1
sg439
I10
sS'l'
g441
sg477
(lp614
sS'n'
g479
sg480
g2
(g16
g4
NtRp615
(dp616
g483
I2097408
sg484
S'k'
sbsg485
I200
sg486
S'black kobold'
p617
sbag2
(g424
g4
NtRp618
(dp619
g427
g2
(g3
g4
NtRp620
(dp621
S'y'
I8
sS'x'
I38
sg7
g9
sg25
g371
sg35
g618
sbsg428
I00
sS'g'
g430
sg438
I1
sg439
I10
sS'l'
g441
sg477
(lp622
sS'n'
g542
sg480
g2
(g16
g4
NtRp623
(dp624
g483
I1280
sg484
S'j'
sbsg485
I200
sg486
S'blue jelly'
p625
sbag2
(g424
g4
NtRp626
(dp627
g427
g2
(g3
g4
NtRp628
(dp629
S'y'
I4
sS'x'
I42
sg7
g9
sg25
g371
sg35
g626
sbsg428
I00
sS'g'
g430
sg438
I1
sg439
I10
sS'l'
g441
sg477
(lp630
sS'n'
g542
sg480
g2
(g16
g4
NtRp631
(dp632
g483
I2097920
sg484
S'j'
sbsg485
I200
sg486
S'green jelly'
p633
sbag2
(g424
g4
NtRp634
(dp635
g427
g2
(g3
g4
NtRp636
(dp637
S'y'
I10
sS'x'
I64
sg7
g9
sg25
g371
sg35
g634
sbsg428
I00
sS'g'
g430
sg438
I1
sg439
I10
sS'l'
g441
sg477
(lp638
sS'n'
g479
sg480
g2
(g16
g4
NtRp639
(dp640
g483
I2097920
sg484
S'@'
sbsg485
I200
sg486
S'green bandit'
p641
sbag2
(g424
g4
NtRp642
(dp643
g427
g2
(g3
g4
NtRp644
(dp645
S'y'
I16
sS'x'
I42
sg7
g9
sg25
g371
sg35
g642
sbsg428
I00
sS'g'
g430
sg438
I1
sg439
I10
sS'l'
g441
sg477
(lp646
sS'n'
g479
sg480
g2
(g16
g4
NtRp647
(dp648
g483
I1024
sg484
S'@'
sbsg485
I200
sg486
S'yellow bandit'
p649
sbag2
(g424
g4
NtRp650
(dp651
g427
g2
(g3
g4
NtRp652
(dp653
S'y'
I16
sS'x'
I45
sg7
g9
sg25
g371
sg35
g650
sbsg428
I00
sS'g'
g430
sg438
I1
sg439
I10
sS'l'
g441
sg477
(lp654
sS'n'
g479
sg480
g2
(g16
g4
NtRp655
(dp656
g483
I2097920
sg484
S'g'
sbsg485
I200
sg486
S'green goblin'
p657
sbag2
(g424
g4
NtRp658
(dp659
g427
g2
(g3
g4
NtRp660
(dp661
S'y'
I11
sS'x'
I20
sg7
g9
sg25
g371
sg35
g658
sbsg428
I00
sS'g'
g430
sg438
I1
sg439
I10
sS'l'
g441
sg477
(lp662
sS'n'
g542
sg480
g2
(g16
g4
NtRp663
(dp664
g483
I2097408
sg484
S'j'
sbsg485
I200
sg486
S'black jelly'
p665
sbag2
(g424
g4
NtRp666
(dp667
g427
g2
(g3
g4
NtRp668
(dp669
S'y'
I13
sS'x'
I63
sg7
g9
sg25
g371
sg35
g666
sbsg428
I00
sS'g'
g430
sg438
I1
sg439
I10
sS'l'
g441
sg477
(lp670
sS'n'
g479
sg480
g2
(g16
g4
NtRp671
(dp672
g483
I1024
sg484
S'k'
sbsg485
I200
sg486
S'yellow kobold'
p673
sbag2
(g424
g4
NtRp674
(dp675
g427
g2
(g3
g4
NtRp676
(dp677
S'y'
I11
sS'x'
I13
sg7
g9
sg25
g371
sg35
g674
sbsg428
I00
sS'g'
g430
sg438
I1
sg439
I10
sS'l'
g441
sg477
(lp678
sS'n'
g479
sg480
g2
(g16
g4
NtRp679
(dp680
g483
I2097920
sg484
S'g'
sbsg485
I200
sg486
S'green goblin'
p681
sbag2
(g424
g4
NtRp682
(dp683
g427
g2
(g3
g4
NtRp684
(dp685
S'y'
I11
sS'x'
I42
sg7
g9
sg25
g371
sg35
g682
sbsg428
I00
sS'g'
g430
sg438
I1
sg439
I10
sS'l'
g441
sg477
(lp686
sS'n'
g479
sg480
g2
(g16
g4
NtRp687
(dp688
g483
I2097408
sg484
S'g'
sbsg485
I200
sg486
S'black goblin'
p689
sbag2
(g424
g4
NtRp690
(dp691
g427
g2
(g3
g4
NtRp692
(dp693
S'y'
I8
sS'x'
I57
sg7
g9
sg25
g371
sg35
g690
sbsg428
I00
sS'g'
g430
sg438
I1
sg439
I10
sS'l'
g441
sg477
(lp694
sS'n'
g509
sg480
g2
(g16
g4
NtRp695
(dp696
g483
I1024
sg484
S'c'
sbsg485
I200
sg486
S'yellow centipede'
p697
sbag2
(g424
g4
NtRp698
(dp699
g427
g2
(g3
g4
NtRp700
(dp701
S'y'
I2
sS'x'
I29
sg7
g9
sg25
g371
sg35
g698
sbsg428
I00
sS'g'
g430
sg438
I1
sg439
I10
sS'l'
g441
sg477
(lp702
sS'n'
g509
sg480
g2
(g16
g4
NtRp703
(dp704
g483
I2097920
sg484
S'c'
sbsg485
I200
sg486
S'green centipede'
p705
sbag2
(g424
g4
NtRp706
(dp707
g427
g2
(g3
g4
NtRp708
(dp709
S'y'
I11
sS'x'
I44
sg7
g9
sg25
g371
sg35
g706
sbsg428
I00
sS'g'
g430
sg438
I1
sg439
I10
sS'l'
g441
sg477
(lp710
sS'n'
g479
sg480
g2
(g16
g4
NtRp711
(dp712
g483
I1024
sg484
S'@'
sbsg485
I200
sg486
S'yellow bandit'
p713
sbag2
(g424
g4
NtRp714
(dp715
g427
g2
(g3
g4
NtRp716
(dp717
S'y'
I10
sS'x'
I43
sg7
g9
sg25
g371
sg35
g714
sbsg428
I00
sS'g'
g430
sg438
I1
sg439
I10
sS'l'
g441
sg477
(lp718
sS'n'
g479
sg480
g2
(g16
g4
NtRp719
(dp720
g483
I1280
sg484
S'@'
sbsg485
I200
sg486
S'blue bandit'
p721
sbag2
(g424
g4
NtRp722
(dp723
g427
g2
(g3
g4
NtRp724
(dp725
S'y'
I8
sS'x'
I26
sg7
g9
sg25
g371
sg35
g722
sbsg428
I00
sS'g'
g430
sg438
I1
sg439
I10
sS'l'
g441
sg477
(lp726
sS'n'
g479
sg480
g2
(g16
g4
NtRp727
(dp728
g483
I1024
sg484
S'k'
sbsg485
I200
sg486
S'yellow kobold'
p729
sbag2
(g424
g4
NtRp730
(dp731
g427
g2
(g3
g4
NtRp732
(dp733
S'y'
I5
sS'x'
I50
sg7
g9
sg25
g371
sg35
g730
sbsg428
I00
sS'g'
g430
sg438
I1
sg439
I10
sS'l'
g441
sg477
(lp734
sS'n'
g479
sg480
g2
(g16
g4
NtRp735
(dp736
g483
I2097920
sg484
S'g'
sbsg485
I200
sg486
S'green goblin'
p737
sbag2
(g424
g4
NtRp738
(dp739
g427
g2
(g3
g4
NtRp740
(dp741
S'y'
I8
sS'x'
I70
sg7
g9
sg25
g371
sg35
g738
sbsg428
I00
sS'g'
g430
sg438
I1
sg439
I10
sS'l'
g441
sg477
(lp742
sS'n'
g542
sg480
g2
(g16
g4
NtRp743
(dp744
g483
I1024
sg484
S'j'
sbsg485
I200
sg486
S'yellow jelly'
p745
sbag2
(g424
g4
NtRp746
(dp747
g427
g2
(g3
g4
NtRp748
(dp749
S'y'
I10
sS'x'
I70
sg7
g9
sg25
g371
sg35
g746
sbsg428
I00
sS'g'
g430
sg438
I1
sg439
I10
sS'l'
g441
sg477
(lp750
sS'n'
g479
sg480
g2
(g16
g4
NtRp751
(dp752
g483
I2097408
sg484
S'@'
sbsg485
I200
sg486
S'black bandit'
p753
sbag2
(g424
g4
NtRp754
(dp755
g427
g2
(g3
g4
NtRp756
(dp757
S'y'
I11
sS'x'
I11
sg7
g9
sg25
g371
sg35
g754
sbsg428
I00
sS'g'
g430
sg438
I1
sg439
I10
sS'l'
g441
sg477
(lp758
sS'n'
g479
sg480
g2
(g16
g4
NtRp759
(dp760
g483
I1280
sg484
S'g'
sbsg485
I200
sg486
S'blue goblin'
p761
sbag2
(g424
g4
NtRp762
(dp763
g427
g2
(g3
g4
NtRp764
(dp765
S'y'
I7
sS'x'
I69
sg7
g9
sg25
g371
sg35
g762
sbsg428
I00
sS'g'
g430
sg438
I1
sg439
I10
sS'l'
g441
sg477
(lp766
sS'n'
g479
sg480
g2
(g16
g4
NtRp767
(dp768
g483
I2097408
sg484
S'k'
sbsg485
I200
sg486
S'black kobold'
p769
sbag2
(g424
g4
NtRp770
(dp771
g427
g2
(g3
g4
NtRp772
(dp773
S'y'
I6
sS'x'
I49
sg7
g9
sg25
g371
sg35
g770
sbsg428
I00
sS'g'
g430
sg438
I1
sg439
I10
sS'l'
g441
sg477
(lp774
sS'n'
g479
sg480
g2
(g16
g4
NtRp775
(dp776
g483
I2097408
sg484
S'@'
sbsg485
I200
sg486
S'black bandit'
p777
sbag2
(g424
g4
NtRp778
(dp779
g427
g2
(g3
g4
NtRp780
(dp781
S'y'
I12
sS'x'
I70
sg7
g9
sg25
g371
sg35
g778
sbsg428
I00
sS'g'
g430
sg438
I1
sg439
I10
sS'l'
g441
sg477
(lp782
sS'n'
g479
sg480
g2
(g16
g4
NtRp783
(dp784
g483
I1024
sg484
S'@'
sbsg485
I200
sg486
S'yellow bandit'
p785
sbag2
(g424
g4
NtRp786
(dp787
g427
g2
(g3
g4
NtRp788
(dp789
S'y'
I8
sS'x'
I43
sg7
g9
sg25
g371
sg35
g786
sbsg428
I00
sS'g'
g430
sg438
I1
sg439
I10
sS'l'
g441
sg477
(lp790
sS'n'
g509
sg480
g2
(g16
g4
NtRp791
(dp792
g483
I2097408
sg484
S'c'
sbsg485
I200
sg486
S'black centipede'
p793
sbag2
(g424
g4
NtRp794
(dp795
g427
g2
(g3
g4
NtRp796
(dp797
S'y'
I11
sS'x'
I22
sg7
g9
sg25
g371
sg35
g794
sbsg428
I00
sS'g'
g430
sg438
I1
sg439
I10
sS'l'
g441
sg477
(lp798
sS'n'
g479
sg480
g2
(g16
g4
NtRp799
(dp800
g483
I1024
sg484
S'k'
sbsg485
I200
sg486
S'yellow kobold'
p801
sbag2
(g424
g4
NtRp802
(dp803
g427
g2
(g3
g4
NtRp804
(dp805
S'y'
I9
sS'x'
I29
sg7
g9
sg25
g371
sg35
g802
sbsg428
I00
sS'g'
g430
sg438
I1
sg439
I10
sS'l'
g441
sg477
(lp806
sS'n'
g542
sg480
g2
(g16
g4
NtRp807
(dp808
g483
I2097408
sg484
S'j'
sbsg485
I200
sg486
S'black jelly'
p809
sbag2
(g424
g4
NtRp810
(dp811
g427
g2
(g3
g4
NtRp812
(dp813
S'y'
I10
sS'x'
I65
sg7
g9
sg25
g371
sg35
g810
sbsg428
I00
sS'g'
g430
sg438
I1
sg439
I10
sS'l'
g441
sg477
(lp814
sS'n'
g479
sg480
g2
(g16
g4
NtRp815
(dp816
g483
I1024
sg484
S'k'
sbsg485
I200
sg486
S'yellow kobold'
p817
sbag2
(g424
g4
NtRp818
(dp819
g427
g2
(g3
g4
NtRp820
(dp821
S'y'
I4
sS'x'
I21
sg7
g9
sg25
g371
sg35
g818
sbsg428
I00
sS'g'
g430
sg438
I1
sg439
I10
sS'l'
g441
sg477
(lp822
sS'n'
g479
sg480
g2
(g16
g4
NtRp823
(dp824
g483
I1024
sg484
S'g'
sbsg485
I200
sg486
S'yellow goblin'
p825
sbag2
(g424
g4
NtRp826
(dp827
g427
g2
(g3
g4
NtRp828
(dp829
S'y'
I5
sS'x'
I43
sg7
g9
sg25
g371
sg35
g826
sbsg428
I00
sS'g'
g430
sg438
I1
sg439
I10
sS'l'
g441
sg477
(lp830
sS'n'
g509
sg480
g2
(g16
g4
NtRp831
(dp832
g483
I1024
sg484
S'c'
sbsg485
I200
sg486
S'yellow centipede'
p833
sbag2
(g424
g4
NtRp834
(dp835
g427
g2
(g3
g4
NtRp836
(dp837
S'y'
I10
sS'x'
I66
sg7
g9
sg25
g371
sg35
g834
sbsg428
I00
sS'g'
g430
sg438
I1
sg439
I10
sS'l'
g441
sg477
(lp838
sS'n'
g479
sg480
g2
(g16
g4
NtRp839
(dp840
g483
I2097408
sg484
S'k'
sbsg485
I200
sg486
S'black kobold'
p841
sbag2
(g424
g4
NtRp842
(dp843
g427
g2
(g3
g4
NtRp844
(dp845
S'y'
I11
sS'x'
I43
sg7
g9
sg25
g371
sg35
g842
sbsg428
I00
sS'g'
g430
sg438
I1
sg439
I10
sS'l'
g441
sg477
(lp846
sS'n'
g509
sg480
g2
(g16
g4
NtRp847
(dp848
g483
I2097408
sg484
S'c'
sbsg485
I200
sg486
S'black centipede'
p849
sbag2
(g424
g4
NtRp850
(dp851
g427
g2
(g3
g4
NtRp852
(dp853
S'y'
I8
sS'x'
I40
sg7
g9
sg25
g371
sg35
g850
sbsg428
I00
sS'g'
g430
sg438
I1
sg439
I10
sS'l'
g441
sg477
(lp854
sS'n'
g509
sg480
g2
(g16
g4
NtRp855
(dp856
g483
I1024
sg484
S'c'
sbsg485
I200
sg486
S'yellow centipede'
p857
sbag2
(g424
g4
NtRp858
(dp859
g427
g2
(g3
g4
NtRp860
(dp861
S'y'
I6
sS'x'
I68
sg7
g9
sg25
g371
sg35
g858
sbsg428
I00
sS'g'
g430
sg438
I1
sg439
I10
sS'l'
g441
sg477
(lp862
sS'n'
g479
sg480
g2
(g16
g4
NtRp863
(dp864
g483
I2097920
sg484
S'@'
sbsg485
I200
sg486
S'green bandit'
p865
sbag2
(g424
g4
NtRp866
(dp867
g427
g2
(g3
g4
NtRp868
(dp869
S'y'
I6
sS'x'
I51
sg7
g9
sg25
g371
sg35
g866
sbsg428
I00
sS'g'
g430
sg438
I1
sg439
I10
sS'l'
g441
sg477
(lp870
sS'n'
g479
sg480
g2
(g16
g4
NtRp871
(dp872
g483
I1024
sg484
S'g'
sbsg485
I200
sg486
S'yellow goblin'
p873
sbag2
(g424
g4
NtRp874
(dp875
g427
g2
(g3
g4
NtRp876
(dp877
S'y'
I9
sS'x'
I67
sg7
g9
sg25
g371
sg35
g874
sbsg428
I00
sS'g'
g430
sg438
I1
sg439
I10
sS'l'
g441
sg477
(lp878
sS'n'
g479
sg480
g2
(g16
g4
NtRp879
(dp880
g483
I1280
sg484
S'@'
sbsg485
I200
sg486
S'blue bandit'
p881
sbag2
(g424
g4
NtRp882
(dp883
g427
g2
(g3
g4
NtRp884
(dp885
S'y'
I12
sS'x'
I1
sg7
g9
sg25
g371
sg35
g882
sbsg428
I00
sS'g'
g430
sg438
I1
sg439
I10
sS'l'
g441
sg477
(lp886
sS'n'
g509
sg480
g2
(g16
g4
NtRp887
(dp888
g483
I2097408
sg484
S'c'
sbsg485
I200
sg486
S'black centipede'
p889
sbag2
(g424
g4
NtRp890
(dp891
g427
g2
(g3
g4
NtRp892
(dp893
S'y'
I12
sS'x'
I53
sg7
g9
sg25
g371
sg35
g890
sbsg428
I00
sS'g'
g430
sg438
I1
sg439
I10
sS'l'
g441
sg477
(lp894
sS'n'
g542
sg480
g2
(g16
g4
NtRp895
(dp896
g483
I2097920
sg484
S'j'
sbsg485
I200
sg486
S'green jelly'
p897
sbag2
(g424
g4
NtRp898
(dp899
g427
g2
(g3
g4
NtRp900
(dp901
S'y'
I8
sS'x'
I67
sg7
g9
sg25
g371
sg35
g898
sbsg428
I00
sS'g'
g430
sg438
I1
sg439
I10
sS'l'
g441
sg477
(lp902
sS'n'
g542
sg480
g2
(g16
g4
NtRp903
(dp904
g483
I2097408
sg484
S'j'
sbsg485
I200
sg486
S'black jelly'
p905
sbag2
(g424
g4
NtRp906
(dp907
g427
g2
(g3
g4
NtRp908
(dp909
S'y'
I11
sS'x'
I30
sg7
g9
sg25
g371
sg35
g906
sbsg428
I00
sS'g'
g430
sg438
I1
sg439
I10
sS'l'
g441
sg477
(lp910
sS'n'
g509
sg480
g2
(g16
g4
NtRp911
(dp912
g483
I2097920
sg484
S'c'
sbsg485
I200
sg486
S'green centipede'
p913
sbag2
(g424
g4
NtRp914
(dp915
g427
g2
(g3
g4
NtRp916
(dp917
S'y'
I10
sS'x'
I28
sg7
g9
sg25
g371
sg35
g914
sbsg428
I00
sS'g'
g430
sg438
I1
sg439
I10
sS'l'
g441
sg477
(lp918
sS'n'
g479
sg480
g2
(g16
g4
NtRp919
(dp920
g483
I1024
sg484
S'g'
sbsg485
I200
sg486
S'yellow goblin'
p921
sbag2
(g424
g4
NtRp922
(dp923
g427
g2
(g3
g4
NtRp924
(dp925
S'y'
I2
sS'x'
I58
sg7
g9
sg25
g371
sg35
g922
sbsg428
I00
sS'g'
g430
sg438
I1
sg439
I10
sS'l'
g441
sg477
(lp926
sS'n'
g479
sg480
g2
(g16
g4
NtRp927
(dp928
g483
I2097408
sg484
S'k'
sbsg485
I200
sg486
S'black kobold'
p929
sbag2
(g424
g4
NtRp930
(dp931
g427
g2
(g3
g4
NtRp932
(dp933
S'y'
I8
sS'x'
I55
sg7
g9
sg25
g371
sg35
g930
sbsg428
I00
sS'g'
g430
sg438
I1
sg439
I10
sS'l'
g441
sg477
(lp934
sS'n'
g542
sg480
g2
(g16
g4
NtRp935
(dp936
g483
I1024
sg484
S'j'
sbsg485
I200
sg486
S'yellow jelly'
p937
sbag2
(g424
g4
NtRp938
(dp939
g427
g2
(g3
g4
NtRp940
(dp941
S'y'
I13
sS'x'
I61
sg7
g9
sg25
g371
sg35
g938
sbsg428
I00
sS'g'
g430
sg438
I1
sg439
I10
sS'l'
g441
sg477
(lp942
sS'n'
g479
sg480
g2
(g16
g4
NtRp943
(dp944
g483
I1024
sg484
S'@'
sbsg485
I200
sg486
S'yellow bandit'
p945
sbag2
(g424
g4
NtRp946
(dp947
g427
g2
(g3
g4
NtRp948
(dp949
S'y'
I10
sS'x'
I10
sg7
g9
sg25
g371
sg35
g946
sbsg428
I00
sS'g'
g430
sg438
I1
sg439
I10
sS'l'
g441
sg477
(lp950
sS'n'
g479
sg480
g2
(g16
g4
NtRp951
(dp952
g483
I1024
sg484
S'@'
sbsg485
I200
sg486
S'yellow bandit'
p953
sbag2
(g424
g4
NtRp954
(dp955
g427
g2
(g3
g4
NtRp956
(dp957
S'y'
I10
sS'x'
I11
sg7
g9
sg25
g371
sg35
g954
sbsg428
I00
sS'g'
g430
sg438
I1
sg439
I10
sS'l'
g441
sg477
(lp958
sS'n'
g479
sg480
g2
(g16
g4
NtRp959
(dp960
g483
I1024
sg484
S'@'
sbsg485
I200
sg486
S'yellow bandit'
p961
sbag2
(g424
g4
NtRp962
(dp963
g427
g2
(g3
g4
NtRp964
(dp965
S'y'
I6
sS'x'
I52
sg7
g9
sg25
g371
sg35
g962
sbsg428
I00
sS'g'
g430
sg438
I1
sg439
I10
sS'l'
g441
sg477
(lp966
sS'n'
g509
sg480
g2
(g16
g4
NtRp967
(dp968
g483
I1280
sg484
S'c'
sbsg485
I200
sg486
S'blue centipede'
p969
sbag2
(g424
g4
NtRp970
(dp971
g427
g2
(g3
g4
NtRp972
(dp973
S'y'
I10
sS'x'
I20
sg7
g9
sg25
g371
sg35
g970
sbsg428
I00
sS'g'
g430
sg438
I1
sg439
I10
sS'l'
g441
sg477
(lp974
sS'n'
g542
sg480
g2
(g16
g4
NtRp975
(dp976
g483
I1024
sg484
S'j'
sbsg485
I200
sg486
S'yellow jelly'
p977
sbag2
(g424
g4
NtRp978
(dp979
g427
g2
(g3
g4
NtRp980
(dp981
S'y'
I13
sS'x'
I8
sg7
g9
sg25
g371
sg35
g978
sbsg428
I00
sS'g'
g430
sg438
I1
sg439
I10
sS'l'
g441
sg477
(lp982
sS'n'
g479
sg480
g2
(g16
g4
NtRp983
(dp984
g483
I1280
sg484
S'g'
sbsg485
I200
sg486
S'blue goblin'
p985
sbag2
(g424
g4
NtRp986
(dp987
g427
g2
(g3
g4
NtRp988
(dp989
S'y'
I11
sS'x'
I15
sg7
g9
sg25
g371
sg35
g986
sbsg428
I00
sS'g'
g430
sg438
I1
sg439
I10
sS'l'
g441
sg477
(lp990
sS'n'
g479
sg480
g2
(g16
g4
NtRp991
(dp992
g483
I2097408
sg484
S'g'
sbsg485
I200
sg486
S'black goblin'
p993
sbag2
(g424
g4
NtRp994
(dp995
g427
g2
(g3
g4
NtRp996
(dp997
S'y'
I14
sS'x'
I44
sg7
g9
sg25
g371
sg35
g994
sbsg428
I00
sS'g'
g430
sg438
I1
sg439
I10
sS'l'
g441
sg477
(lp998
sS'n'
g479
sg480
g2
(g16
g4
NtRp999
(dp1000
g483
I2097408
sg484
S'k'
sbsg485
I200
sg486
S'black kobold'
p1001
sbag2
(g424
g4
NtRp1002
(dp1003
g427
g2
(g3
g4
NtRp1004
(dp1005
S'y'
I10
sS'x'
I14
sg7
g9
sg25
g371
sg35
g1002
sbsg428
I00
sS'g'
g430
sg438
I1
sg439
I10
sS'l'
g441
sg477
(lp1006
sS'n'
g479
sg480
g2
(g16
g4
NtRp1007
(dp1008
g483
I1024
sg484
S'k'
sbsg485
I200
sg486
S'yellow kobold'
p1009
sbag2
(g424
g4
NtRp1010
(dp1011
g427
g2
(g3
g4
NtRp1012
(dp1013
S'y'
I14
sS'x'
I62
sg7
g9
sg25
g371
sg35
g1010
sbsg428
I00
sS'g'
g430
sg438
I1
sg439
I10
sS'l'
g441
sg477
(lp1014
sS'n'
g479
sg480
g2
(g16
g4
NtRp1015
(dp1016
g483
I1024
sg484
S'k'
sbsg485
I200
sg486
S'yellow kobold'
p1017
sbag2
(g424
g4
NtRp1018
(dp1019
g427
g2
(g3
g4
NtRp1020
(dp1021
S'y'
I11
sS'x'
I53
sg7
g9
sg25
g371
sg35
g1018
sbsg428
I00
sS'g'
g430
sg438
I1
sg439
I10
sS'l'
g441
sg477
(lp1022
sS'n'
g542
sg480
g2
(g16
g4
NtRp1023
(dp1024
g483
I2097408
sg484
S'j'
sbsg485
I200
sg486
S'black jelly'
p1025
sbag2
(g424
g4
NtRp1026
(dp1027
g427
g2
(g3
g4
NtRp1028
(dp1029
S'y'
I7
sS'x'
I70
sg7
g9
sg25
g371
sg35
g1026
sbsg428
I00
sS'g'
g430
sg438
I1
sg439
I10
sS'l'
g441
sg477
(lp1030
sS'n'
g542
sg480
g2
(g16
g4
NtRp1031
(dp1032
g483
I1280
sg484
S'j'
sbsg485
I200
sg486
S'blue jelly'
p1033
sbag2
(g424
g4
NtRp1034
(dp1035
g427
g2
(g3
g4
NtRp1036
(dp1037
S'y'
I6
sS'x'
I25
sg7
g9
sg25
g371
sg35
g1034
sbsg428
I00
sS'g'
g430
sg438
I1
sg439
I10
sS'l'
g441
sg477
(lp1038
sS'n'
g479
sg480
g2
(g16
g4
NtRp1039
(dp1040
g483
I1280
sg484
S'k'
sbsg485
I200
sg486
S'blue kobold'
p1041
sbag2
(g424
g4
NtRp1042
(dp1043
g427
g2
(g3
g4
NtRp1044
(dp1045
S'y'
I18
sS'x'
I42
sg7
g9
sg25
g371
sg35
g1042
sbsg428
I00
sS'g'
g430
sg438
I1
sg439
I10
sS'l'
g441
sg477
(lp1046
sS'n'
g509
sg480
g2
(g16
g4
NtRp1047
(dp1048
g483
I2097920
sg484
S'c'
sbsg485
I200
sg486
S'green centipede'
p1049
sbag2
(g424
g4
NtRp1050
(dp1051
g427
g2
(g3
g4
NtRp1052
(dp1053
S'y'
I17
sS'x'
I42
sg7
g9
sg25
g371
sg35
g1050
sbsg428
I00
sS'g'
g430
sg438
I1
sg439
I10
sS'l'
g441
sg477
(lp1054
sS'n'
g542
sg480
g2
(g16
g4
NtRp1055
(dp1056
g483
I2097408
sg484
S'j'
sbsg485
I200
sg486
S'black jelly'
p1057
sbag2
(g424
g4
NtRp1058
(dp1059
g427
g2
(g3
g4
NtRp1060
(dp1061
S'y'
I11
sS'x'
I28
sg7
g9
sg25
g371
sg35
g1058
sbsg428
I00
sS'g'
g430
sg438
I1
sg439
I10
sS'l'
g441
sg477
(lp1062
sS'n'
g479
sg480
g2
(g16
g4
NtRp1063
(dp1064
g483
I1280
sg484
S'k'
sbsg485
I200
sg486
S'blue kobold'
p1065
sbag2
(g424
g4
NtRp1066
(dp1067
g427
g2
(g3
g4
NtRp1068
(dp1069
S'y'
I9
sS'x'
I22
sg7
g9
sg25
g371
sg35
g1066
sbsg428
I00
sS'g'
g430
sg438
I1
sg439
I10
sS'l'
g441
sg477
(lp1070
sS'n'
g479
sg480
g2
(g16
g4
NtRp1071
(dp1072
g483
I2097920
sg484
S'g'
sbsg485
I200
sg486
S'green goblin'
p1073
sbag2
(g424
g4
NtRp1074
(dp1075
g427
g2
(g3
g4
NtRp1076
(dp1077
S'y'
I12
sS'x'
I55
sg7
g9
sg25
g371
sg35
g1074
sbsg428
I00
sS'g'
g430
sg438
I1
sg439
I10
sS'l'
g441
sg477
(lp1078
sS'n'
g542
sg480
g2
(g16
g4
NtRp1079
(dp1080
g483
I1280
sg484
S'j'
sbsg485
I200
sg486
S'blue jelly'
p1081
sbag2
(g424
g4
NtRp1082
(dp1083
g427
g2
(g3
g4
NtRp1084
(dp1085
S'y'
I9
sS'x'
I25
sg7
g9
sg25
g371
sg35
g1082
sbsg428
I00
sS'g'
g430
sg438
I1
sg439
I10
sS'l'
g441
sg477
(lp1086
sS'n'
g479
sg480
g2
(g16
g4
NtRp1087
(dp1088
g483
I2097920
sg484
S'@'
sbsg485
I200
sg486
S'green bandit'
p1089
sbag2
(g424
g4
NtRp1090
(dp1091
g427
g2
(g3
g4
NtRp1092
(dp1093
S'y'
I8
sS'x'
I24
sg7
g9
sg25
g371
sg35
g1090
sbsg428
I00
sS'g'
g430
sg438
I1
sg439
I10
sS'l'
g441
sg477
(lp1094
sS'n'
g542
sg480
g2
(g16
g4
NtRp1095
(dp1096
g483
I1280
sg484
S'j'
sbsg485
I200
sg486
S'blue jelly'
p1097
sbag2
(g424
g4
NtRp1098
(dp1099
g427
g2
(g3
g4
NtRp1100
(dp1101
S'y'
I7
sS'x'
I28
sg7
g9
sg25
g371
sg35
g1098
sbsg428
I00
sS'g'
g430
sg438
I1
sg439
I10
sS'l'
g441
sg477
(lp1102
sS'n'
g479
sg480
g2
(g16
g4
NtRp1103
(dp1104
g483
I2097920
sg484
S'g'
sbsg485
I200
sg486
S'green goblin'
p1105
sbag2
(g424
g4
NtRp1106
(dp1107
g427
g2
(g3
g4
NtRp1108
(dp1109
S'y'
I5
sS'x'
I49
sg7
g9
sg25
g371
sg35
g1106
sbsg428
I00
sS'g'
g430
sg438
I1
sg439
I10
sS'l'
g441
sg477
(lp1110
sS'n'
g479
sg480
g2
(g16
g4
NtRp1111
(dp1112
g483
I2097408
sg484
S'g'
sbsg485
I200
sg486
S'black goblin'
p1113
sbag2
(g424
g4
NtRp1114
(dp1115
g427
g2
(g3
g4
NtRp1116
(dp1117
S'y'
I7
sS'x'
I24
sg7
g9
sg25
g371
sg35
g1114
sbsg428
I00
sS'g'
g430
sg438
I1
sg439
I10
sS'l'
g441
sg477
(lp1118
sS'n'
g542
sg480
g2
(g16
g4
NtRp1119
(dp1120
g483
I1280
sg484
S'j'
sbsg485
I200
sg486
S'blue jelly'
p1121
sbag2
(g424
g4
NtRp1122
(dp1123
g427
g2
(g3
g4
NtRp1124
(dp1125
S'y'
I3
sS'x'
I22
sg7
g9
sg25
g371
sg35
g1122
sbsg428
I00
sS'g'
g430
sg438
I1
sg439
I10
sS'l'
g441
sg477
(lp1126
sS'n'
g509
sg480
g2
(g16
g4
NtRp1127
(dp1128
g483
I2097920
sg484
S'c'
sbsg485
I200
sg486
S'green centipede'
p1129
sbag2
(g424
g4
NtRp1130
(dp1131
g427
g2
(g3
g4
NtRp1132
(dp1133
S'y'
I12
sS'x'
I42
sg7
g9
sg25
g371
sg35
g1130
sbsg428
I00
sS'g'
g430
sg438
I1
sg439
I10
sS'l'
g441
sg477
(lp1134
sS'n'
g479
sg480
g2
(g16
g4
NtRp1135
(dp1136
g483
I2097920
sg484
S'k'
sbsg485
I200
sg486
S'green kobold'
p1137
sbag2
(g424
g4
NtRp1138
(dp1139
g427
g2
(g3
g4
NtRp1140
(dp1141
S'y'
I16
sS'x'
I61
sg7
g9
sg25
g371
sg35
g1138
sbsg428
I00
sS'g'
g430
sg438
I1
sg439
I10
sS'l'
g441
sg477
(lp1142
sS'n'
g542
sg480
g2
(g16
g4
NtRp1143
(dp1144
g483
I2097408
sg484
S'j'
sbsg485
I200
sg486
S'black jelly'
p1145
sbag2
(g424
g4
NtRp1146
(dp1147
g427
g2
(g3
g4
NtRp1148
(dp1149
S'y'
I2
sS'x'
I31
sg7
g9
sg25
g371
sg35
g1146
sbsg428
I00
sS'g'
g430
sg438
I1
sg439
I10
sS'l'
g441
sg477
(lp1150
sS'n'
g509
sg480
g2
(g16
g4
NtRp1151
(dp1152
g483
I2097920
sg484
S'c'
sbsg485
I200
sg486
S'green centipede'
p1153
sbag2
(g424
g4
NtRp1154
(dp1155
g427
g2
(g3
g4
NtRp1156
(dp1157
S'y'
I12
sS'x'
I44
sg7
g9
sg25
g371
sg35
g1154
sbsg428
I00
sS'g'
g430
sg438
I1
sg439
I10
sS'l'
g441
sg477
(lp1158
sS'n'
g542
sg480
g2
(g16
g4
NtRp1159
(dp1160
g483
I2097920
sg484
S'j'
sbsg485
I200
sg486
S'green jelly'
p1161
sbag2
(g424
g4
NtRp1162
(dp1163
g427
g2
(g3
g4
NtRp1164
(dp1165
S'y'
I7
sS'x'
I26
sg7
g9
sg25
g371
sg35
g1162
sbsg428
I00
sS'g'
g430
sg438
I1
sg439
I10
sS'l'
g441
sg477
(lp1166
sS'n'
g509
sg480
g2
(g16
g4
NtRp1167
(dp1168
g483
I2097920
sg484
S'c'
sbsg485
I200
sg486
S'green centipede'
p1169
sbag2
(g424
g4
NtRp1170
(dp1171
g427
g2
(g3
g4
NtRp1172
(dp1173
S'y'
I4
sS'x'
I43
sg7
g9
sg25
g371
sg35
g1170
sbsg428
I00
sS'g'
g430
sg438
I1
sg439
I10
sS'l'
g441
sg477
(lp1174
sS'n'
g479
sg480
g2
(g16
g4
NtRp1175
(dp1176
g483
I2097408
sg484
S'@'
sbsg485
I200
sg486
S'black bandit'
p1177
sbag2
(g424
g4
NtRp1178
(dp1179
g427
g2
(g3
g4
NtRp1180
(dp1181
S'y'
I7
sS'x'
I67
sg7
g9
sg25
g371
sg35
g1178
sbsg428
I00
sS'g'
g430
sg438
I1
sg439
I10
sS'l'
g441
sg477
(lp1182
sS'n'
g542
sg480
g2
(g16
g4
NtRp1183
(dp1184
g483
I2097920
sg484
S'j'
sbsg485
I200
sg486
S'green jelly'
p1185
sbag2
(g424
g4
NtRp1186
(dp1187
g427
g2
(g3
g4
NtRp1188
(dp1189
S'y'
I9
sS'x'
I9
sg7
g9
sg25
g371
sg35
g1186
sbsg428
I00
sS'g'
g430
sg438
I1
sg439
I10
sS'l'
g441
sg477
(lp1190
sS'n'
g479
sg480
g2
(g16
g4
NtRp1191
(dp1192
g483
I1024
sg484
S'k'
sbsg485
I200
sg486
S'yellow kobold'
p1193
sbag2
(g424
g4
NtRp1194
(dp1195
g427
g2
(g3
g4
NtRp1196
(dp1197
S'y'
I8
sS'x'
I25
sg7
g9
sg25
g371
sg35
g1194
sbsg428
I00
sS'g'
g430
sg438
I1
sg439
I10
sS'l'
g441
sg477
(lp1198
sS'n'
g509
sg480
g2
(g16
g4
NtRp1199
(dp1200
g483
I2097408
sg484
S'c'
sbsg485
I200
sg486
S'black centipede'
p1201
sbag2
(g424
g4
NtRp1202
(dp1203
g427
g2
(g3
g4
NtRp1204
(dp1205
S'y'
I10
sS'x'
I69
sg7
g9
sg25
g371
sg35
g1202
sbsg428
I00
sS'g'
g430
sg438
I1
sg439
I10
sS'l'
g441
sg477
(lp1206
sS'n'
g479
sg480
g2
(g16
g4
NtRp1207
(dp1208
g483
I1280
sg484
S'k'
sbsg485
I200
sg486
S'blue kobold'
p1209
sbag2
(g424
g4
NtRp1210
(dp1211
g427
g2
(g3
g4
NtRp1212
(dp1213
S'y'
I7
sS'x'
I68
sg7
g9
sg25
g371
sg35
g1210
sbsg428
I00
sS'g'
g430
sg438
I1
sg439
I10
sS'l'
g441
sg477
(lp1214
sS'n'
g479
sg480
g2
(g16
g4
NtRp1215
(dp1216
g483
I2097920
sg484
S'k'
sbsg485
I200
sg486
S'green kobold'
p1217
sbag2
(g424
g4
NtRp1218
(dp1219
g427
g2
(g3
g4
NtRp1220
(dp1221
S'y'
I6
sS'x'
I10
sg7
g9
sg25
g371
sg35
g1218
sbsg428
I00
sS'g'
g430
sg438
I1
sg439
I10
sS'l'
g441
sg477
(lp1222
sS'n'
g479
sg480
g2
(g16
g4
NtRp1223
(dp1224
g483
I2097920
sg484
S'@'
sbsg485
I200
sg486
S'green bandit'
p1225
sbag2
(g424
g4
NtRp1226
(dp1227
g427
g2
(g3
g4
NtRp1228
(dp1229
S'y'
I12
sS'x'
I69
sg7
g9
sg25
g371
sg35
g1226
sbsg428
I00
sS'g'
g430
sg438
I1
sg439
I10
sS'l'
g441
sg477
(lp1230
sS'n'
g479
sg480
g2
(g16
g4
NtRp1231
(dp1232
g483
I2097408
sg484
S'@'
sbsg485
I200
sg486
S'black bandit'
p1233
sbag2
(g424
g4
NtRp1234
(dp1235
g427
g2
(g3
g4
NtRp1236
(dp1237
S'y'
I18
sS'x'
I15
sg7
g9
sg25
g371
sg35
g1234
sbsg428
I00
sS'g'
g430
sg438
I1
sg439
I10
sS'l'
g441
sg477
(lp1238
sS'n'
g479
sg480
g2
(g16
g4
NtRp1239
(dp1240
g483
I2097920
sg484
S'k'
sbsg485
I200
sg486
S'green kobold'
p1241
sbag2
(g424
g4
NtRp1242
(dp1243
g427
g2
(g3
g4
NtRp1244
(dp1245
S'y'
I10
sS'x'
I13
sg7
g9
sg25
g371
sg35
g1242
sbsg428
I00
sS'g'
g430
sg438
I1
sg439
I10
sS'l'
g441
sg477
(lp1246
sS'n'
g509
sg480
g2
(g16
g4
NtRp1247
(dp1248
g483
I1280
sg484
S'c'
sbsg485
I200
sg486
S'blue centipede'
p1249
sbag2
(g424
g4
NtRp1250
(dp1251
g427
g2
(g3
g4
NtRp1252
(dp1253
S'y'
I14
sS'x'
I25
sg7
g9
sg25
g371
sg35
g1250
sbsg428
I00
sS'g'
g430
sg438
I1
sg439
I10
sS'l'
g441
sg477
(lp1254
sS'n'
g479
sg480
g2
(g16
g4
NtRp1255
(dp1256
g483
I1024
sg484
S'k'
sbsg485
I200
sg486
S'yellow kobold'
p1257
sbag2
(g424
g4
NtRp1258
(dp1259
g427
g2
(g3
g4
NtRp1260
(dp1261
S'y'
I7
sS'x'
I9
sg7
g9
sg25
g371
sg35
g1258
sbsg428
I00
sS'g'
g430
sg438
I1
sg439
I10
sS'l'
g441
sg477
(lp1262
sS'n'
g509
sg480
g2
(g16
g4
NtRp1263
(dp1264
g483
I2097920
sg484
S'c'
sbsg485
I200
sg486
S'green centipede'
p1265
sbag2
(g424
g4
NtRp1266
(dp1267
g427
g2
(g3
g4
NtRp1268
(dp1269
S'y'
I8
sS'x'
I68
sg7
g9
sg25
g371
sg35
g1266
sbsg428
I00
sS'g'
g430
sg438
I1
sg439
I10
sS'l'
g441
sg477
(lp1270
sS'n'
g479
sg480
g2
(g16
g4
NtRp1271
(dp1272
g483
I1280
sg484
S'g'
sbsg485
I200
sg486
S'blue goblin'
p1273
sbag434
asbsg477
(lp1274
sS'n'
S'god'
p1275
sg480
g2
(g16
g4
NtRp1276
(dp1277
g483
I2097152
sg484
S'@'
sbsS'actions'
p1278
(dp1279
I258
(S'move'
p1280
I2
tp1281
sI259
(g1280
I8
tp1282
sI260
(g1280
I4
tp1283
sI261
(g1280
I6
tp1284
sI43
(S'change_sight_range'
I1
tp1285
sI45
(S'change_sight_range'
I-1
tp1286
sI46
(g1280
I5
tp1287
sI49
(g1280
I1
tp1288
sI50
(g1280
I2
tp1289
sI51
(g1280
I3
tp1290
sI52
(g1280
I4
tp1291
sI53
(g1280
I5
tp1292
sI54
(g1280
I6
tp1293
sI55
(g1280
I7
tp1294
sI56
(g1280
I8
tp1295
sI57
(g1280
I9
tp1296
sI60
(S'ascend'
tp1297
sI62
(S'descend'
tp1298
sI76
(S'loadgame'
tp1299
sI81
(S'endgame'
tp1300
sI83
(S'savegame'
p1301
tp1302
sI112
(S'path'
tp1303
ssg485
I200
sg486
S'tappi'
p1304
sbsS'main'
p1305
g2
(c__main__
Main
p1306
g4
NtRp1307
(dp1308
S'game'
p1309
g430
sbsS'l'
(lp1310
g441
asbsg438
I1
sg439
I10
sS'l'
g441
sg477
(lp1311
sS'n'
g509
sg480
g2
(g16
g4
NtRp1312
(dp1313
g483
I1280
sg484
S'c'
sbsg485
I200
sg486
S'blue centipede'
p1314
sbsbag2
(g3
g4
NtRp1315
(dp1316
S'y'
I2
sS'x'
I27
sg7
g9
sg25
g371
sg35
Nsbag2
(g3
g4
NtRp1317
(dp1318
S'y'
I2
sS'x'
I28
sg7
g9
sg25
g371
sg35
Nsbag700
ag2
(g3
g4
NtRp1319
(dp1320
S'y'
I2
sS'x'
I30
sg7
g9
sg25
g371
sg35
Nsbag1148
ag2
(g3
g4
NtRp1321
(dp1322
S'y'
I2
sS'x'
I32
sg7
g9
sg25
g371
sg35
Nsbag2
(g3
g4
NtRp1323
(dp1324
S'y'
I2
sS'x'
I33
sg7
g9
sg25
g371
sg35
Nsbag2
(g3
g4
NtRp1325
(dp1326
S'y'
I2
sS'x'
I34
sg7
g9
sg25
g371
sg35
Nsbag2
(g3
g4
NtRp1327
(dp1328
S'y'
I2
sS'x'
I35
sg7
g9
sg25
g371
sg35
Nsbag2
(g3
g4
NtRp1329
(dp1330
S'y'
I2
sS'x'
I36
sg7
g9
sg25
g371
sg35
Nsbag2
(g3
g4
NtRp1331
(dp1332
S'y'
I2
sS'x'
I37
sg7
g9
sg25
g202
sg35
Nsbag2
(g3
g4
NtRp1333
(dp1334
S'y'
I2
sS'x'
I38
sg7
g9
sg25
g26
sg35
Nsbag2
(g3
g4
NtRp1335
(dp1336
S'y'
I2
sS'x'
I39
sg7
g9
sg25
g26
sg35
Nsbag2
(g3
g4
NtRp1337
(dp1338
S'y'
I2
sS'x'
I40
sg7
g9
sg25
g26
sg35
Nsbag2
(g3
g4
NtRp1339
(dp1340
S'y'
I2
sS'x'
I41
sg7
g9
sg25
g202
sg35
Nsbag2
(g3
g4
NtRp1341
(dp1342
S'y'
I2
sS'x'
I42
sg7
g9
sg25
g202
sg35
Nsbag2
(g3
g4
NtRp1343
(dp1344
S'y'
I2
sS'x'
I43
sg7
g9
sg25
g202
sg35
Nsbag2
(g3
g4
NtRp1345
(dp1346
S'y'
I2
sS'x'
I44
sg7
g9
sg25
g202
sg35
Nsbag2
(g3
g4
NtRp1347
(dp1348
S'y'
I2
sS'x'
I45
sg7
g9
sg25
g202
sg35
Nsbag2
(g3
g4
NtRp1349
(dp1350
S'y'
I2
sS'x'
I46
sg7
g9
sg25
g202
sg35
Nsbag2
(g3
g4
NtRp1351
(dp1352
S'y'
I2
sS'x'
I47
sg7
g9
sg25
g202
sg35
Nsbag2
(g3
g4
NtRp1353
(dp1354
S'y'
I2
sS'x'
I48
sg7
g9
sg25
g26
sg35
Nsbag2
(g3
g4
NtRp1355
(dp1356
S'y'
I2
sS'x'
I49
sg7
g9
sg25
g26
sg35
Nsbag2
(g3
g4
NtRp1357
(dp1358
S'y'
I2
sS'x'
I50
sg7
g9
sg25
g26
sg35
Nsbag2
(g3
g4
NtRp1359
(dp1360
S'y'
I2
sS'x'
I51
sg7
g9
sg25
g26
sg35
Nsbag2
(g3
g4
NtRp1361
(dp1362
S'y'
I2
sS'x'
I52
sg7
g9
sg25
g26
sg35
Nsbag2
(g3
g4
NtRp1363
(dp1364
S'y'
I2
sS'x'
I53
sg7
g9
sg25
g26
sg35
Nsbag2
(g3
g4
NtRp1365
(dp1366
S'y'
I2
sS'x'
I54
sg7
g9
sg25
g26
sg35
Nsbag2
(g3
g4
NtRp1367
(dp1368
S'y'
I2
sS'x'
I55
sg7
g9
sg25
g26
sg35
Nsbag2
(g3
g4
NtRp1369
(dp1370
S'y'
I2
sS'x'
I56
sg7
g9
sg25
g26
sg35
Nsbag2
(g3
g4
NtRp1371
(dp1372
S'y'
I2
sS'x'
I57
sg7
g9
sg25
g202
sg35
Nsbag924
ag2
(g3
g4
NtRp1373
(dp1374
S'y'
I2
sS'x'
I59
sg7
g9
sg25
g371
sg35
Nsbag2
(g3
g4
NtRp1375
(dp1376
S'y'
I2
sS'x'
I60
sg7
g9
sg25
g371
sg35
Nsbag2
(g3
g4
NtRp1377
(dp1378
S'y'
I2
sS'x'
I61
sg7
g9
sg25
g371
sg35
Nsbag2
(g3
g4
NtRp1379
(dp1380
S'y'
I2
sS'x'
I62
sg7
g9
sg25
g371
sg35
Nsbag2
(g3
g4
NtRp1381
(dp1382
S'y'
I2
sS'x'
I63
sg7
g9
sg25
g371
sg35
Nsbag2
(g3
g4
NtRp1383
(dp1384
S'y'
I2
sS'x'
I64
sg7
g9
sg25
g371
sg35
Nsbag2
(g3
g4
NtRp1385
(dp1386
S'y'
I2
sS'x'
I65
sg7
g9
sg25
g371
sg35
Nsbag2
(g3
g4
NtRp1387
(dp1388
S'y'
I2
sS'x'
I66
sg7
g9
sg25
g202
sg35
Nsbag2
(g3
g4
NtRp1389
(dp1390
S'y'
I2
sS'x'
I67
sg7
g9
sg25
g202
sg35
Nsbag2
(g3
g4
NtRp1391
(dp1392
S'y'
I2
sS'x'
I68
sg7
g9
sg25
g202
sg35
Nsbag2
(g3
g4
NtRp1393
(dp1394
S'y'
I2
sS'x'
I69
sg7
g9
sg25
g202
sg35
Nsbag2
(g3
g4
NtRp1395
(dp1396
S'y'
I2
sS'x'
I70
sg7
g9
sg25
g202
sg35
Nsbag2
(g3
g4
NtRp1397
(dp1398
S'y'
I2
sS'x'
I71
sg7
g9
sg25
g202
sg35
Nsbag2
(g3
g4
NtRp1399
(dp1400
S'y'
I2
sS'x'
I72
sg7
g9
sg25
g202
sg35
Nsbag2
(g3
g4
NtRp1401
(dp1402
S'y'
I2
sS'x'
I73
sg7
g9
sg25
g202
sg35
Nsbag2
(g3
g4
NtRp1403
(dp1404
S'y'
I2
sS'x'
I74
sg7
g9
sg25
g202
sg35
Nsbag2
(g3
g4
NtRp1405
(dp1406
S'y'
I2
sS'x'
I75
sg7
g9
sg25
g202
sg35
Nsbag2
(g3
g4
NtRp1407
(dp1408
S'y'
I2
sS'x'
I76
sg7
g9
sg25
g202
sg35
Nsbag2
(g3
g4
NtRp1409
(dp1410
S'y'
I2
sS'x'
I77
sg7
g9
sg25
g202
sg35
Nsbag2
(g3
g4
NtRp1411
(dp1412
S'y'
I2
sS'x'
I78
sg7
g9
sg25
g26
sg35
Nsbag2
(g3
g4
NtRp1413
(dp1414
S'y'
I2
sS'x'
I79
sg7
g9
sg25
g26
sg35
Nsbag2
(g3
g4
NtRp1415
(dp1416
S'y'
I3
sS'x'
I0
sg7
g9
sg25
g26
sg35
Nsbag2
(g3
g4
NtRp1417
(dp1418
S'y'
I3
sS'x'
I1
sg7
g9
sg25
g26
sg35
Nsbag2
(g3
g4
NtRp1419
(dp1420
S'y'
I3
sS'x'
I2
sg7
g9
sg25
g26
sg35
Nsbag2
(g3
g4
NtRp1421
(dp1422
S'y'
I3
sS'x'
I3
sg7
g9
sg25
g202
sg35
Nsbag2
(g3
g4
NtRp1423
(dp1424
S'y'
I3
sS'x'
I4
sg7
g9
sg25
g371
sg35
Nsbag2
(g3
g4
NtRp1425
(dp1426
S'y'
I3
sS'x'
I5
sg7
g9
sg25
g371
sg35
Nsbag2
(g3
g4
NtRp1427
(dp1428
S'y'
I3
sS'x'
I6
sg7
g9
sg25
g371
sg35
Nsbag2
(g3
g4
NtRp1429
(dp1430
S'y'
I3
sS'x'
I7
sg7
g9
sg25
g371
sg35
Nsbag2
(g3
g4
NtRp1431
(dp1432
S'y'
I3
sS'x'
I8
sg7
g9
sg25
g371
sg35
Nsbag2
(g3
g4
NtRp1433
(dp1434
S'y'
I3
sS'x'
I9
sg7
g9
sg25
g371
sg35
Nsbag2
(g3
g4
NtRp1435
(dp1436
S'y'
I3
sS'x'
I10
sg7
g9
sg25
g371
sg35
Nsbag2
(g3
g4
NtRp1437
(dp1438
S'y'
I3
sS'x'
I11
sg7
g9
sg25
g202
sg35
Nsbag2
(g3
g4
NtRp1439
(dp1440
S'y'
I3
sS'x'
I12
sg7
g9
sg25
g202
sg35
Nsbag2
(g3
g4
NtRp1441
(dp1442
S'y'
I3
sS'x'
I13
sg7
g9
sg25
g371
sg35
Nsbag2
(g3
g4
NtRp1443
(dp1444
S'y'
I3
sS'x'
I14
sg7
g9
sg25
g202
sg35
Nsbag2
(g3
g4
NtRp1445
(dp1446
S'y'
I3
sS'x'
I15
sg7
g9
sg25
g202
sg35
Nsbag2
(g3
g4
NtRp1447
(dp1448
S'y'
I3
sS'x'
I16
sg7
g9
sg25
g371
sg35
Nsbag2
(g3
g4
NtRp1449
(dp1450
S'y'
I3
sS'x'
I17
sg7
g9
sg25
g371
sg35
Nsbag2
(g3
g4
NtRp1451
(dp1452
S'y'
I3
sS'x'
I18
sg7
g9
sg25
g371
sg35
Nsbag2
(g3
g4
NtRp1453
(dp1454
S'y'
I3
sS'x'
I19
sg7
g9
sg25
g371
sg35
Nsbag2
(g3
g4
NtRp1455
(dp1456
S'y'
I3
sS'x'
I20
sg7
g9
sg25
g371
sg35
Nsbag2
(g3
g4
NtRp1457
(dp1458
S'y'
I3
sS'x'
I21
sg7
g9
sg25
g371
sg35
Nsbag1124
ag2
(g3
g4
NtRp1459
(dp1460
S'y'
I3
sS'x'
I23
sg7
g9
sg25
g202
sg35
Nsbag2
(g3
g4
NtRp1461
(dp1462
S'y'
I3
sS'x'
I24
sg7
g9
sg25
g202
sg35
Nsbag2
(g3
g4
NtRp1463
(dp1464
S'y'
I3
sS'x'
I25
sg7
g9
sg25
g202
sg35
Nsbag2
(g3
g4
NtRp1465
(dp1466
S'y'
I3
sS'x'
I26
sg7
g9
sg25
g202
sg35
Nsbag2
(g3
g4
NtRp1467
(dp1468
S'y'
I3
sS'x'
I27
sg7
g9
sg25
g202
sg35
Nsbag2
(g3
g4
NtRp1469
(dp1470
S'y'
I3
sS'x'
I28
sg7
g9
sg25
g202
sg35
Nsbag2
(g3
g4
NtRp1471
(dp1472
S'y'
I3
sS'x'
I29
sg7
g9
sg25
g202
sg35
Nsbag2
(g3
g4
NtRp1473
(dp1474
S'y'
I3
sS'x'
I30
sg7
g9
sg25
g202
sg35
Nsbag2
(g3
g4
NtRp1475
(dp1476
S'y'
I3
sS'x'
I31
sg7
g9
sg25
g202
sg35
Nsbag2
(g3
g4
NtRp1477
(dp1478
S'y'
I3
sS'x'
I32
sg7
g9
sg25
g202
sg35
Nsbag2
(g3
g4
NtRp1479
(dp1480
S'y'
I3
sS'x'
I33
sg7
g9
sg25
g202
sg35
Nsbag2
(g3
g4
NtRp1481
(dp1482
S'y'
I3
sS'x'
I34
sg7
g9
sg25
g202
sg35
Nsbag2
(g3
g4
NtRp1483
(dp1484
S'y'
I3
sS'x'
I35
sg7
g9
sg25
g202
sg35
Nsbag2
(g3
g4
NtRp1485
(dp1486
S'y'
I3
sS'x'
I36
sg7
g9
sg25
g202
sg35
Nsbag2
(g3
g4
NtRp1487
(dp1488
S'y'
I3
sS'x'
I37
sg7
g9
sg25
g202
sg35
Nsbag2
(g3
g4
NtRp1489
(dp1490
S'y'
I3
sS'x'
I38
sg7
g9
sg25
g202
sg35
Nsbag2
(g3
g4
NtRp1491
(dp1492
S'y'
I3
sS'x'
I39
sg7
g9
sg25
g202
sg35
Nsbag2
(g3
g4
NtRp1493
(dp1494
S'y'
I3
sS'x'
I40
sg7
g9
sg25
g202
sg35
Nsbag2
(g3
g4
NtRp1495
(dp1496
S'y'
I3
sS'x'
I41
sg7
g9
sg25
g202
sg35
Nsbag2
(g3
g4
NtRp1497
(dp1498
S'y'
I3
sS'x'
I42
sg7
g9
sg25
g371
sg35
Nsbag2
(g3
g4
NtRp1499
(dp1500
S'y'
I3
sS'x'
I43
sg7
g9
sg25
g371
sg35
Nsbag2
(g3
g4
NtRp1501
(dp1502
S'y'
I3
sS'x'
I44
sg7
g9
sg25
g371
sg35
Nsbag2
(g3
g4
NtRp1503
(dp1504
S'y'
I3
sS'x'
I45
sg7
g9
sg25
g371
sg35
Nsbag2
(g3
g4
NtRp1505
(dp1506
S'y'
I3
sS'x'
I46
sg7
g9
sg25
g371
sg35
Nsbag2
(g3
g4
NtRp1507
(dp1508
S'y'
I3
sS'x'
I47
sg7
g9
sg25
g202
sg35
Nsbag2
(g3
g4
NtRp1509
(dp1510
S'y'
I3
sS'x'
I48
sg7
g9
sg25
g202
sg35
Nsbag2
(g3
g4
NtRp1511
(dp1512
S'y'
I3
sS'x'
I49
sg7
g9
sg25
g202
sg35
Nsbag2
(g3
g4
NtRp1513
(dp1514
S'y'
I3
sS'x'
I50
sg7
g9
sg25
g202
sg35
Nsbag2
(g3
g4
NtRp1515
(dp1516
S'y'
I3
sS'x'
I51
sg7
g9
sg25
g202
sg35
Nsbag2
(g3
g4
NtRp1517
(dp1518
S'y'
I3
sS'x'
I52
sg7
g9
sg25
g202
sg35
Nsbag2
(g3
g4
NtRp1519
(dp1520
S'y'
I3
sS'x'
I53
sg7
g9
sg25
g202
sg35
Nsbag2
(g3
g4
NtRp1521
(dp1522
S'y'
I3
sS'x'
I54
sg7
g9
sg25
g202
sg35
Nsbag2
(g3
g4
NtRp1523
(dp1524
S'y'
I3
sS'x'
I55
sg7
g9
sg25
g202
sg35
Nsbag2
(g3
g4
NtRp1525
(dp1526
S'y'
I3
sS'x'
I56
sg7
g9
sg25
g202
sg35
Nsbag2
(g3
g4
NtRp1527
(dp1528
S'y'
I3
sS'x'
I57
sg7
g9
sg25
g202
sg35
Nsbag2
(g3
g4
NtRp1529
(dp1530
S'y'
I3
sS'x'
I58
sg7
g9
sg25
g202
sg35
Nsbag2
(g3
g4
NtRp1531
(dp1532
S'y'
I3
sS'x'
I59
sg7
g9
sg25
g202
sg35
Nsbag2
(g3
g4
NtRp1533
(dp1534
S'y'
I3
sS'x'
I60
sg7
g9
sg25
g202
sg35
Nsbag2
(g3
g4
NtRp1535
(dp1536
S'y'
I3
sS'x'
I61
sg7
g9
sg25
g202
sg35
Nsbag2
(g3
g4
NtRp1537
(dp1538
S'y'
I3
sS'x'
I62
sg7
g9
sg25
g202
sg35
Nsbag2
(g3
g4
NtRp1539
(dp1540
S'y'
I3
sS'x'
I63
sg7
g9
sg25
g202
sg35
Nsbag2
(g3
g4
NtRp1541
(dp1542
S'y'
I3
sS'x'
I64
sg7
g9
sg25
g202
sg35
Nsbag2
(g3
g4
NtRp1543
(dp1544
S'y'
I3
sS'x'
I65
sg7
g9
sg25
g371
sg35
Nsbag2
(g3
g4
NtRp1545
(dp1546
S'y'
I3
sS'x'
I66
sg7
g9
sg25
g202
sg35
Nsbag2
(g3
g4
NtRp1547
(dp1548
S'y'
I3
sS'x'
I67
sg7
g9
sg25
g371
sg35
Nsbag2
(g3
g4
NtRp1549
(dp1550
S'y'
I3
sS'x'
I68
sg7
g9
sg25
g371
sg35
Nsbag2
(g3
g4
NtRp1551
(dp1552
S'y'
I3
sS'x'
I69
sg7
g9
sg25
g371
sg35
Nsbag2
(g3
g4
NtRp1553
(dp1554
S'y'
I3
sS'x'
I70
sg7
g9
sg25
g371
sg35
Nsbag2
(g3
g4
NtRp1555
(dp1556
S'y'
I3
sS'x'
I71
sg7
g9
sg25
g371
sg35
Nsbag2
(g3
g4
NtRp1557
(dp1558
S'y'
I3
sS'x'
I72
sg7
g9
sg25
g371
sg35
Nsbag2
(g3
g4
NtRp1559
(dp1560
S'y'
I3
sS'x'
I73
sg7
g9
sg25
g371
sg35
Nsbag2
(g3
g4
NtRp1561
(dp1562
S'y'
I3
sS'x'
I74
sg7
g9
sg25
g371
sg35
Nsbag2
(g3
g4
NtRp1563
(dp1564
S'y'
I3
sS'x'
I75
sg7
g9
sg25
g371
sg35
Nsbag2
(g3
g4
NtRp1565
(dp1566
S'y'
I3
sS'x'
I76
sg7
g9
sg25
g371
sg35
Nsbag2
(g3
g4
NtRp1567
(dp1568
S'y'
I3
sS'x'
I77
sg7
g9
sg25
g202
sg35
Nsbag2
(g3
g4
NtRp1569
(dp1570
S'y'
I3
sS'x'
I78
sg7
g9
sg25
g26
sg35
Nsbag2
(g3
g4
NtRp1571
(dp1572
S'y'
I3
sS'x'
I79
sg7
g9
sg25
g26
sg35
Nsbag2
(g3
g4
NtRp1573
(dp1574
S'y'
I4
sS'x'
I0
sg7
g9
sg25
g26
sg35
Nsbag2
(g3
g4
NtRp1575
(dp1576
S'y'
I4
sS'x'
I1
sg7
g9
sg25
g26
sg35
Nsbag2
(g3
g4
NtRp1577
(dp1578
S'y'
I4
sS'x'
I2
sg7
g9
sg25
g26
sg35
Nsbag2
(g3
g4
NtRp1579
(dp1580
S'y'
I4
sS'x'
I3
sg7
g9
sg25
g202
sg35
Nsbag2
(g3
g4
NtRp1581
(dp1582
S'y'
I4
sS'x'
I4
sg7
g9
sg25
g371
sg35
Nsbag2
(g3
g4
NtRp1583
(dp1584
S'y'
I4
sS'x'
I5
sg7
g9
sg25
g371
sg35
Nsbag2
(g3
g4
NtRp1585
(dp1586
S'y'
I4
sS'x'
I6
sg7
g9
sg25
g371
sg35
Nsbag2
(g3
g4
NtRp1587
(dp1588
S'y'
I4
sS'x'
I7
sg7
g9
sg25
g371
sg35
Nsbag2
(g3
g4
NtRp1589
(dp1590
S'y'
I4
sS'x'
I8
sg7
g9
sg25
g371
sg35
Nsbag2
(g3
g4
NtRp1591
(dp1592
S'y'
I4
sS'x'
I9
sg7
g9
sg25
g371
sg35
Nsbag2
(g3
g4
NtRp1593
(dp1594
S'y'
I4
sS'x'
I10
sg7
g9
sg25
g371
sg35
Nsbag2
(g3
g4
NtRp1595
(dp1596
S'y'
I4
sS'x'
I11
sg7
g9
sg25
g202
sg35
Nsbag2
(g3
g4
NtRp1597
(dp1598
S'y'
I4
sS'x'
I12
sg7
g9
sg25
g202
sg35
Nsbag2
(g3
g4
NtRp1599
(dp1600
S'y'
I4
sS'x'
I13
sg7
g9
sg25
g371
sg35
Nsbag2
(g3
g4
NtRp1601
(dp1602
S'y'
I4
sS'x'
I14
sg7
g9
sg25
g202
sg35
Nsbag2
(g3
g4
NtRp1603
(dp1604
S'y'
I4
sS'x'
I15
sg7
g9
sg25
g202
sg35
Nsbag2
(g3
g4
NtRp1605
(dp1606
S'y'
I4
sS'x'
I16
sg7
g9
sg25
g371
sg35
Nsbag2
(g3
g4
NtRp1607
(dp1608
S'y'
I4
sS'x'
I17
sg7
g9
sg25
g371
sg35
Nsbag2
(g3
g4
NtRp1609
(dp1610
S'y'
I4
sS'x'
I18
sg7
g9
sg25
g371
sg35
Nsbag2
(g3
g4
NtRp1611
(dp1612
S'y'
I4
sS'x'
I19
sg7
g9
sg25
g371
sg35
Nsbag2
(g3
g4
NtRp1613
(dp1614
S'y'
I4
sS'x'
I20
sg7
g9
sg25
g371
sg35
Nsbag820
ag2
(g3
g4
NtRp1615
(dp1616
S'y'
I4
sS'x'
I22
sg7
g9
sg25
g371
sg35
Nsbag2
(g3
g4
NtRp1617
(dp1618
S'y'
I4
sS'x'
I23
sg7
g9
sg25
g202
sg35
Nsbag2
(g3
g4
NtRp1619
(dp1620
S'y'
I4
sS'x'
I24
sg7
g9
sg25
g371
sg35
Nsbag2
(g3
g4
NtRp1621
(dp1622
S'y'
I4
sS'x'
I25
sg7
g9
sg25
g371
sg35
Nsbag2
(g3
g4
NtRp1623
(dp1624
S'y'
I4
sS'x'
I26
sg7
g9
sg25
g371
sg35
Nsbag2
(g3
g4
NtRp1625
(dp1626
S'y'
I4
sS'x'
I27
sg7
g9
sg25
g371
sg35
Nsbag2
(g3
g4
NtRp1627
(dp1628
S'y'
I4
sS'x'
I28
sg7
g9
sg25
g371
sg35
Nsbag2
(g3
g4
NtRp1629
(dp1630
S'y'
I4
sS'x'
I29
sg7
g9
sg25
g371
sg35
Nsbag2
(g3
g4
NtRp1631
(dp1632
S'y'
I4
sS'x'
I30
sg7
g9
sg25
g371
sg35
Nsbag2
(g3
g4
NtRp1633
(dp1634
S'y'
I4
sS'x'
I31
sg7
g9
sg25
g371
sg35
Nsbag2
(g3
g4
NtRp1635
(dp1636
S'y'
I4
sS'x'
I32
sg7
g9
sg25
g371
sg35
Nsbag2
(g3
g4
NtRp1637
(dp1638
S'y'
I4
sS'x'
I33
sg7
g9
sg25
g371
sg35
Nsbag2
(g3
g4
NtRp1639
(dp1640
S'y'
I4
sS'x'
I34
sg7
g9
sg25
g371
sg35
Nsbag2
(g3
g4
NtRp1641
(dp1642
S'y'
I4
sS'x'
I35
sg7
g9
sg25
g371
sg35
Nsbag2
(g3
g4
NtRp1643
(dp1644
S'y'
I4
sS'x'
I36
sg7
g9
sg25
g371
sg35
Nsbag2
(g3
g4
NtRp1645
(dp1646
S'y'
I4
sS'x'
I37
sg7
g9
sg25
g371
sg35
Nsbag2
(g3
g4
NtRp1647
(dp1648
S'y'
I4
sS'x'
I38
sg7
g9
sg25
g371
sg35
Nsbag2
(g3
g4
NtRp1649
(dp1650
S'y'
I4
sS'x'
I39
sg7
g9
sg25
g371
sg35
Nsbag2
(g3
g4
NtRp1651
(dp1652
S'y'
I4
sS'x'
I40
sg7
g9
sg25
g202
sg35
Nsbag2
(g3
g4
NtRp1653
(dp1654
S'y'
I4
sS'x'
I41
sg7
g9
sg25
g202
sg35
Nsbag628
ag1172
ag2
(g3
g4
NtRp1655
(dp1656
S'y'
I4
sS'x'
I44
sg7
g9
sg25
g371
sg35
Nsbag2
(g3
g4
NtRp1657
(dp1658
S'y'
I4
sS'x'
I45
sg7
g9
sg25
g371
sg35
Nsbag2
(g3
g4
NtRp1659
(dp1660
S'y'
I4
sS'x'
I46
sg7
g9
sg25
g371
sg35
Nsbag2
(g3
g4
NtRp1661
(dp1662
S'y'
I4
sS'x'
I47
sg7
g9
sg25
g202
sg35
Nsbag2
(g3
g4
NtRp1663
(dp1664
S'y'
I4
sS'x'
I48
sg7
g9
sg25
g202
sg35
Nsbag2
(g3
g4
NtRp1665
(dp1666
S'y'
I4
sS'x'
I49
sg7
g9
sg25
g371
sg35
Nsbag2
(g3
g4
NtRp1667
(dp1668
S'y'
I4
sS'x'
I50
sg7
g9
sg25
g371
sg35
Nsbag2
(g3
g4
NtRp1669
(dp1670
S'y'
I4
sS'x'
I51
sg7
g9
sg25
g371
sg35
Nsbag2
(g3
g4
NtRp1671
(dp1672
S'y'
I4
sS'x'
I52
sg7
g9
sg25
g371
sg35
Nsbag2
(g3
g4
NtRp1673
(dp1674
S'y'
I4
sS'x'
I53
sg7
g9
sg25
g371
sg35
Nsbag2
(g3
g4
NtRp1675
(dp1676
S'y'
I4
sS'x'
I54
sg7
g9
sg25
g371
sg35
Nsbag2
(g3
g4
NtRp1677
(dp1678
S'y'
I4
sS'x'
I55
sg7
g9
sg25
g371
sg35
Nsbag2
(g3
g4
NtRp1679
(dp1680
S'y'
I4
sS'x'
I56
sg7
g9
sg25
g371
sg35
Nsbag2
(g3
g4
NtRp1681
(dp1682
S'y'
I4
sS'x'
I57
sg7
g9
sg25
g371
sg35
Nsbag2
(g3
g4
NtRp1683
(dp1684
S'y'
I4
sS'x'
I58
sg7
g9
sg25
g371
sg35
Nsbag2
(g3
g4
NtRp1685
(dp1686
S'y'
I4
sS'x'
I59
sg7
g9
sg25
g202
sg35
Nsbag2
(g3
g4
NtRp1687
(dp1688
S'y'
I4
sS'x'
I60
sg7
g9
sg25
g26
sg35
Nsbag2
(g3
g4
NtRp1689
(dp1690
S'y'
I4
sS'x'
I61
sg7
g9
sg25
g26
sg35
Nsbag2
(g3
g4
NtRp1691
(dp1692
S'y'
I4
sS'x'
I62
sg7
g9
sg25
g26
sg35
Nsbag2
(g3
g4
NtRp1693
(dp1694
S'y'
I4
sS'x'
I63
sg7
g9
sg25
g26
sg35
Nsbag2
(g3
g4
NtRp1695
(dp1696
S'y'
I4
sS'x'
I64
sg7
g9
sg25
g202
sg35
Nsbag2
(g3
g4
NtRp1697
(dp1698
S'y'
I4
sS'x'
I65
sg7
g9
sg25
g371
sg35
Nsbag2
(g3
g4
NtRp1699
(dp1700
S'y'
I4
sS'x'
I66
sg7
g9
sg25
g202
sg35
Nsbag2
(g3
g4
NtRp1701
(dp1702
S'y'
I4
sS'x'
I67
sg7
g9
sg25
g371
sg35
Nsbag2
(g3
g4
NtRp1703
(dp1704
S'y'
I4
sS'x'
I68
sg7
g9
sg25
g371
sg35
Nsbag2
(g3
g4
NtRp1705
(dp1706
S'y'
I4
sS'x'
I69
sg7
g9
sg25
g371
sg35
Nsbag2
(g3
g4
NtRp1707
(dp1708
S'y'
I4
sS'x'
I70
sg7
g9
sg25
g371
sg35
Nsbag2
(g3
g4
NtRp1709
(dp1710
S'y'
I4
sS'x'
I71
sg7
g9
sg25
g371
sg35
Nsbag2
(g3
g4
NtRp1711
(dp1712
S'y'
I4
sS'x'
I72
sg7
g9
sg25
g371
sg35
Nsbag2
(g3
g4
NtRp1713
(dp1714
S'y'
I4
sS'x'
I73
sg7
g9
sg25
g371
sg35
Nsbag2
(g3
g4
NtRp1715
(dp1716
S'y'
I4
sS'x'
I74
sg7
g9
sg25
g371
sg35
Nsbag2
(g3
g4
NtRp1717
(dp1718
S'y'
I4
sS'x'
I75
sg7
g9
sg25
g371
sg35
Nsbag2
(g3
g4
NtRp1719
(dp1720
S'y'
I4
sS'x'
I76
sg7
g9
sg25
g371
sg35
Nsbag2
(g3
g4
NtRp1721
(dp1722
S'y'
I4
sS'x'
I77
sg7
g9
sg25
g202
sg35
Nsbag2
(g3
g4
NtRp1723
(dp1724
S'y'
I4
sS'x'
I78
sg7
g9
sg25
g26
sg35
Nsbag2
(g3
g4
NtRp1725
(dp1726
S'y'
I4
sS'x'
I79
sg7
g9
sg25
g26
sg35
Nsbag2
(g3
g4
NtRp1727
(dp1728
S'y'
I5
sS'x'
I0
sg7
g9
sg25
g202
sg35
Nsbag2
(g3
g4
NtRp1729
(dp1730
S'y'
I5
sS'x'
I1
sg7
g9
sg25
g202
sg35
Nsbag2
(g3
g4
NtRp1731
(dp1732
S'y'
I5
sS'x'
I2
sg7
g9
sg25
g202
sg35
Nsbag2
(g3
g4
NtRp1733
(dp1734
S'y'
I5
sS'x'
I3
sg7
g9
sg25
g202
sg35
Nsbag2
(g3
g4
NtRp1735
(dp1736
S'y'
I5
sS'x'
I4
sg7
g9
sg25
g371
sg35
Nsbag2
(g3
g4
NtRp1737
(dp1738
S'y'
I5
sS'x'
I5
sg7
g9
sg25
g371
sg35
Nsbag2
(g3
g4
NtRp1739
(dp1740
S'y'
I5
sS'x'
I6
sg7
g9
sg25
g371
sg35
Nsbag2
(g3
g4
NtRp1741
(dp1742
S'y'
I5
sS'x'
I7
sg7
g9
sg25
g371
sg35
Nsbag2
(g3
g4
NtRp1743
(dp1744
S'y'
I5
sS'x'
I8
sg7
g9
sg25
g371
sg35
Nsbag2
(g3
g4
NtRp1745
(dp1746
S'y'
I5
sS'x'
I9
sg7
g9
sg25
g371
sg35
Nsbag2
(g3
g4
NtRp1747
(dp1748
S'y'
I5
sS'x'
I10
sg7
g9
sg25
g371
sg35
Nsbag2
(g3
g4
NtRp1749
(dp1750
S'y'
I5
sS'x'
I11
sg7
g9
sg25
g202
sg35
Nsbag2
(g3
g4
NtRp1751
(dp1752
S'y'
I5
sS'x'
I12
sg7
g9
sg25
g202
sg35
Nsbag2
(g3
g4
NtRp1753
(dp1754
S'y'
I5
sS'x'
I13
sg7
g9
sg25
g371
sg35
Nsbag2
(g3
g4
NtRp1755
(dp1756
S'y'
I5
sS'x'
I14
sg7
g9
sg25
g202
sg35
Nsbag2
(g3
g4
NtRp1757
(dp1758
S'y'
I5
sS'x'
I15
sg7
g9
sg25
g202
sg35
Nsbag2
(g3
g4
NtRp1759
(dp1760
S'y'
I5
sS'x'
I16
sg7
g9
sg25
g202
sg35
Nsbag2
(g3
g4
NtRp1761
(dp1762
S'y'
I5
sS'x'
I17
sg7
g9
sg25
g371
sg35
Nsbag2
(g3
g4
NtRp1763
(dp1764
S'y'
I5
sS'x'
I18
sg7
g9
sg25
g202
sg35
Nsbag2
(g3
g4
NtRp1765
(dp1766
S'y'
I5
sS'x'
I19
sg7
g9
sg25
g202
sg35
Nsbag2
(g3
g4
NtRp1767
(dp1768
S'y'
I5
sS'x'
I20
sg7
g9
sg25
g202
sg35
Nsbag2
(g3
g4
NtRp1769
(dp1770
S'y'
I5
sS'x'
I21
sg7
g9
sg25
g202
sg35
Nsbag2
(g3
g4
NtRp1771
(dp1772
S'y'
I5
sS'x'
I22
sg7
g9
sg25
g202
sg35
Nsbag2
(g3
g4
NtRp1773
(dp1774
S'y'
I5
sS'x'
I23
sg7
g9
sg25
g202
sg35
Nsbag2
(g3
g4
NtRp1775
(dp1776
S'y'
I5
sS'x'
I24
sg7
g9
sg25
g371
sg35
Nsbag2
(g3
g4
NtRp1777
(dp1778
S'y'
I5
sS'x'
I25
sg7
g9
sg25
g371
sg35
Nsbag2
(g3
g4
NtRp1779
(dp1780
S'y'
I5
sS'x'
I26
sg7
g9
sg25
g371
sg35
Nsbag2
(g3
g4
NtRp1781
(dp1782
S'y'
I5
sS'x'
I27
sg7
g9
sg25
g371
sg35
Nsbag2
(g3
g4
NtRp1783
(dp1784
S'y'
I5
sS'x'
I28
sg7
g9
sg25
g371
sg35
Nsbag2
(g3
g4
NtRp1785
(dp1786
S'y'
I5
sS'x'
I29
sg7
g9
sg25
g371
sg35
Nsbag2
(g3
g4
NtRp1787
(dp1788
S'y'
I5
sS'x'
I30
sg7
g9
sg25
g371
sg35
Nsbag2
(g3
g4
NtRp1789
(dp1790
S'y'
I5
sS'x'
I31
sg7
g9
sg25
g202
sg35
Nsbag2
(g3
g4
NtRp1791
(dp1792
S'y'
I5
sS'x'
I32
sg7
g9
sg25
g202
sg35
Nsbag2
(g3
g4
NtRp1793
(dp1794
S'y'
I5
sS'x'
I33
sg7
g9
sg25
g202
sg35
Nsbag2
(g3
g4
NtRp1795
(dp1796
S'y'
I5
sS'x'
I34
sg7
g9
sg25
g202
sg35
Nsbag2
(g3
g4
NtRp1797
(dp1798
S'y'
I5
sS'x'
I35
sg7
g9
sg25
g202
sg35
Nsbag2
(g3
g4
NtRp1799
(dp1800
S'y'
I5
sS'x'
I36
sg7
g9
sg25
g202
sg35
Nsbag2
(g3
g4
NtRp1801
(dp1802
S'y'
I5
sS'x'
I37
sg7
g9
sg25
g202
sg35
Nsbag2
(g3
g4
NtRp1803
(dp1804
S'y'
I5
sS'x'
I38
sg7
g9
sg25
g202
sg35
Nsbag2
(g3
g4
NtRp1805
(dp1806
S'y'
I5
sS'x'
I39
sg7
g9
sg25
g202
sg35
Nsbag2
(g3
g4
NtRp1807
(dp1808
S'y'
I5
sS'x'
I40
sg7
g9
sg25
g202
sg35
Nsbag2
(g3
g4
NtRp1809
(dp1810
S'y'
I5
sS'x'
I41
sg7
g9
sg25
g202
sg35
Nsbag2
(g3
g4
NtRp1811
(dp1812
S'y'
I5
sS'x'
I42
sg7
g9
sg25
g371
sg35
Nsbag828
ag2
(g3
g4
NtRp1813
(dp1814
S'y'
I5
sS'x'
I44
sg7
g9
sg25
g371
sg35
Nsbag2
(g3
g4
NtRp1815
(dp1816
S'y'
I5
sS'x'
I45
sg7
g9
sg25
g371
sg35
Nsbag2
(g3
g4
NtRp1817
(dp1818
S'y'
I5
sS'x'
I46
sg7
g9
sg25
g371
sg35
Nsbag2
(g3
g4
NtRp1819
(dp1820
S'y'
I5
sS'x'
I47
sg7
g9
sg25
g202
sg35
Nsbag2
(g3
g4
NtRp1821
(dp1822
S'y'
I5
sS'x'
I48
sg7
g9
sg25
g202
sg35
Nsbag1108
ag732
ag2
(g3
g4
NtRp1823
(dp1824
S'y'
I5
sS'x'
I51
sg7
g9
sg25
g371
sg35
Nsbag2
(g3
g4
NtRp1825
(dp1826
S'y'
I5
sS'x'
I52
sg7
g9
sg25
g371
sg35
Nsbag2
(g3
g4
NtRp1827
(dp1828
S'y'
I5
sS'x'
I53
sg7
g9
sg25
g371
sg35
Nsbag2
(g3
g4
NtRp1829
(dp1830
S'y'
I5
sS'x'
I54
sg7
g9
sg25
g371
sg35
Nsbag2
(g3
g4
NtRp1831
(dp1832
S'y'
I5
sS'x'
I55
sg7
g9
sg25
g371
sg35
Nsbag2
(g3
g4
NtRp1833
(dp1834
S'y'
I5
sS'x'
I56
sg7
g9
sg25
g371
sg35
Nsbag2
(g3
g4
NtRp1835
(dp1836
S'y'
I5
sS'x'
I57
sg7
g9
sg25
g371
sg35
Nsbag2
(g3
g4
NtRp1837
(dp1838
S'y'
I5
sS'x'
I58
sg7
g9
sg25
g371
sg35
Nsbag2
(g3
g4
NtRp1839
(dp1840
S'y'
I5
sS'x'
I59
sg7
g9
sg25
g202
sg35
Nsbag2
(g3
g4
NtRp1841
(dp1842
S'y'
I5
sS'x'
I60
sg7
g9
sg25
g26
sg35
Nsbag2
(g3
g4
NtRp1843
(dp1844
S'y'
I5
sS'x'
I61
sg7
g9
sg25
g26
sg35
Nsbag2
(g3
g4
NtRp1845
(dp1846
S'y'
I5
sS'x'
I62
sg7
g9
sg25
g26
sg35
Nsbag2
(g3
g4
NtRp1847
(dp1848
S'y'
I5
sS'x'
I63
sg7
g9
sg25
g26
sg35
Nsbag2
(g3
g4
NtRp1849
(dp1850
S'y'
I5
sS'x'
I64
sg7
g9
sg25
g202
sg35
Nsbag2
(g3
g4
NtRp1851
(dp1852
S'y'
I5
sS'x'
I65
sg7
g9
sg25
g371
sg35
Nsbag2
(g3
g4
NtRp1853
(dp1854
S'y'
I5
sS'x'
I66
sg7
g9
sg25
g202
sg35
Nsbag539
ag2
(g3
g4
NtRp1855
(dp1856
S'y'
I5
sS'x'
I68
sg7
g9
sg25
g371
sg35
Nsbag2
(g3
g4
NtRp1857
(dp1858
S'y'
I5
sS'x'
I69
sg7
g9
sg25
g371
sg35
Nsbag2
(g3
g4
NtRp1859
(dp1860
S'y'
I5
sS'x'
I70
sg7
g9
sg25
g371
sg35
Nsbag2
(g3
g4
NtRp1861
(dp1862
S'y'
I5
sS'x'
I71
sg7
g9
sg25
g371
sg35
Nsbag2
(g3
g4
NtRp1863
(dp1864
S'y'
I5
sS'x'
I72
sg7
g9
sg25
g371
sg35
Nsbag2
(g3
g4
NtRp1865
(dp1866
S'y'
I5
sS'x'
I73
sg7
g9
sg25
g371
sg35
Nsbag2
(g3
g4
NtRp1867
(dp1868
S'y'
I5
sS'x'
I74
sg7
g9
sg25
g371
sg35
Nsbag2
(g3
g4
NtRp1869
(dp1870
S'y'
I5
sS'x'
I75
sg7
g9
sg25
g371
sg35
Nsbag2
(g3
g4
NtRp1871
(dp1872
S'y'
I5
sS'x'
I76
sg7
g9
sg25
g371
sg35
Nsbag2
(g3
g4
NtRp1873
(dp1874
S'y'
I5
sS'x'
I77
sg7
g9
sg25
g202
sg35
Nsbag2
(g3
g4
NtRp1875
(dp1876
S'y'
I5
sS'x'
I78
sg7
g9
sg25
g26
sg35
Nsbag2
(g3
g4
NtRp1877
(dp1878
S'y'
I5
sS'x'
I79
sg7
g9
sg25
g26
sg35
Nsbag2
(g3
g4
NtRp1879
(dp1880
S'y'
I6
sS'x'
I0
sg7
g9
sg25
g202
sg35
Nsbag2
(g3
g4
NtRp1881
(dp1882
S'y'
I6
sS'x'
I1
sg7
g9
sg25
g371
sg35
Nsbag2
(g3
g4
NtRp1883
(dp1884
S'y'
I6
sS'x'
I2
sg7
g9
sg25
g202
sg35
Nsbag2
(g3
g4
NtRp1885
(dp1886
S'y'
I6
sS'x'
I3
sg7
g9
sg25
g202
sg35
Nsbag2
(g3
g4
NtRp1887
(dp1888
S'y'
I6
sS'x'
I4
sg7
g9
sg25
g371
sg35
Nsbag2
(g3
g4
NtRp1889
(dp1890
S'y'
I6
sS'x'
I5
sg7
g9
sg25
g371
sg35
Nsbag2
(g3
g4
NtRp1891
(dp1892
S'y'
I6
sS'x'
I6
sg7
g9
sg25
g371
sg35
Nsbag2
(g3
g4
NtRp1893
(dp1894
S'y'
I6
sS'x'
I7
sg7
g9
sg25
g371
sg35
Nsbag2
(g3
g4
NtRp1895
(dp1896
S'y'
I6
sS'x'
I8
sg7
g9
sg25
g371
sg35
Nsbag2
(g3
g4
NtRp1897
(dp1898
S'y'
I6
sS'x'
I9
sg7
g9
sg25
g371
sg35
Nsbag1220
ag2
(g3
g4
NtRp1899
(dp1900
S'y'
I6
sS'x'
I11
sg7
g9
sg25
g202
sg35
Nsbag2
(g3
g4
NtRp1901
(dp1902
S'y'
I6
sS'x'
I12
sg7
g9
sg25
g202
sg35
Nsbag2
(g3
g4
NtRp1903
(dp1904
S'y'
I6
sS'x'
I13
sg7
g9
sg25
g371
sg35
Nsbag2
(g3
g4
NtRp1905
(dp1906
S'y'
I6
sS'x'
I14
sg7
g9
sg25
g202
sg35
Nsbag2
(g3
g4
NtRp1907
(dp1908
S'y'
I6
sS'x'
I15
sg7
g9
sg25
g371
sg35
Nsbag2
(g3
g4
NtRp1909
(dp1910
S'y'
I6
sS'x'
I16
sg7
g9
sg25
g371
sg35
Nsbag2
(g3
g4
NtRp1911
(dp1912
S'y'
I6
sS'x'
I17
sg7
g9
sg25
g371
sg35
Nsbag2
(g3
g4
NtRp1913
(dp1914
S'y'
I6
sS'x'
I18
sg7
g9
sg25
g371
sg35
Nsbag2
(g3
g4
NtRp1915
(dp1916
S'y'
I6
sS'x'
I19
sg7
g9
sg25
g371
sg35
Nsbag2
(g3
g4
NtRp1917
(dp1918
S'y'
I6
sS'x'
I20
sg7
g9
sg25
g371
sg35
Nsbag2
(g3
g4
NtRp1919
(dp1920
S'y'
I6
sS'x'
I21
sg7
g9
sg25
g371
sg35
Nsbag2
(g3
g4
NtRp1921
(dp1922
S'y'
I6
sS'x'
I22
sg7
g9
sg25
g371
sg35
Nsbag2
(g3
g4
NtRp1923
(dp1924
S'y'
I6
sS'x'
I23
sg7
g9
sg25
g202
sg35
Nsbag2
(g3
g4
NtRp1925
(dp1926
S'y'
I6
sS'x'
I24
sg7
g9
sg25
g371
sg35
Nsbag1036
ag2
(g3
g4
NtRp1927
(dp1928
S'y'
I6
sS'x'
I26
sg7
g9
sg25
g371
sg35
Nsbag2
(g3
g4
NtRp1929
(dp1930
S'y'
I6
sS'x'
I27
sg7
g9
sg25
g371
sg35
Nsbag2
(g3
g4
NtRp1931
(dp1932
S'y'
I6
sS'x'
I28
sg7
g9
sg25
g371
sg35
Nsbag2
(g3
g4
NtRp1933
(dp1934
S'y'
I6
sS'x'
I29
sg7
g9
sg25
g371
sg35
Nsbag2
(g3
g4
NtRp1935
(dp1936
S'y'
I6
sS'x'
I30
sg7
g9
sg25
g371
sg35
Nsbag2
(g3
g4
NtRp1937
(dp1938
S'y'
I6
sS'x'
I31
sg7
g9
sg25
g371
sg35
Nsbag2
(g3
g4
NtRp1939
(dp1940
S'y'
I6
sS'x'
I32
sg7
g9
sg25
g371
sg35
Nsbag2
(g3
g4
NtRp1941
(dp1942
S'y'
I6
sS'x'
I33
sg7
g9
sg25
g371
sg35
Nsbag2
(g3
g4
NtRp1943
(dp1944
S'y'
I6
sS'x'
I34
sg7
g9
sg25
g371
sg35
Nsbag2
(g3
g4
NtRp1945
(dp1946
S'y'
I6
sS'x'
I35
sg7
g9
sg25
g371
sg35
Nsbag2
(g3
g4
NtRp1947
(dp1948
S'y'
I6
sS'x'
I36
sg7
g9
sg25
g371
sg35
Nsbag2
(g3
g4
NtRp1949
(dp1950
S'y'
I6
sS'x'
I37
sg7
g9
sg25
g371
sg35
Nsbag2
(g3
g4
NtRp1951
(dp1952
S'y'
I6
sS'x'
I38
sg7
g9
sg25
g371
sg35
Nsbag2
(g3
g4
NtRp1953
(dp1954
S'y'
I6
sS'x'
I39
sg7
g9
sg25
g202
sg35
Nsbag2
(g3
g4
NtRp1955
(dp1956
S'y'
I6
sS'x'
I40
sg7
g9
sg25
g26
sg35
Nsbag2
(g3
g4
NtRp1957
(dp1958
S'y'
I6
sS'x'
I41
sg7
g9
sg25
g202
sg35
Nsbag2
(g3
g4
NtRp1959
(dp1960
S'y'
I6
sS'x'
I42
sg7
g9
sg25
g202
sg35
Nsbag2
(g3
g4
NtRp1961
(dp1962
S'y'
I6
sS'x'
I43
sg7
g9
sg25
g202
sg35
Nsbag2
(g3
g4
NtRp1963
(dp1964
S'y'
I6
sS'x'
I44
sg7
g9
sg25
g202
sg35
Nsbag2
(g3
g4
NtRp1965
(dp1966
S'y'
I6
sS'x'
I45
sg7
g9
sg25
g371
sg35
Nsbag2
(g3
g4
NtRp1967
(dp1968
S'y'
I6
sS'x'
I46
sg7
g9
sg25
g202
sg35
Nsbag2
(g3
g4
NtRp1969
(dp1970
S'y'
I6
sS'x'
I47
sg7
g9
sg25
g202
sg35
Nsbag2
(g3
g4
NtRp1971
(dp1972
S'y'
I6
sS'x'
I48
sg7
g9
sg25
g202
sg35
Nsbag772
ag2
(g3
g4
NtRp1973
(dp1974
S'y'
I6
sS'x'
I50
sg7
g9
sg25
g371
sg35
Nsbag868
ag964
ag2
(g3
g4
NtRp1975
(dp1976
S'y'
I6
sS'x'
I53
sg7
g9
sg25
g371
sg35
Nsbag2
(g3
g4
NtRp1977
(dp1978
S'y'
I6
sS'x'
I54
sg7
g9
sg25
g371
sg35
Nsbag2
(g3
g4
NtRp1979
(dp1980
S'y'
I6
sS'x'
I55
sg7
g9
sg25
g371
sg35
Nsbag2
(g3
g4
NtRp1981
(dp1982
S'y'
I6
sS'x'
I56
sg7
g9
sg25
g371
sg35
Nsbag2
(g3
g4
NtRp1983
(dp1984
S'y'
I6
sS'x'
I57
sg7
g9
sg25
g371
sg35
Nsbag2
(g3
g4
NtRp1985
(dp1986
S'y'
I6
sS'x'
I58
sg7
g9
sg25
g371
sg35
Nsbag2
(g3
g4
NtRp1987
(dp1988
S'y'
I6
sS'x'
I59
sg7
g9
sg25
g202
sg35
Nsbag2
(g3
g4
NtRp1989
(dp1990
S'y'
I6
sS'x'
I60
sg7
g9
sg25
g26
sg35
Nsbag2
(g3
g4
NtRp1991
(dp1992
S'y'
I6
sS'x'
I61
sg7
g9
sg25
g26
sg35
Nsbag2
(g3
g4
NtRp1993
(dp1994
S'y'
I6
sS'x'
I62
sg7
g9
sg25
g26
sg35
Nsbag2
(g3
g4
NtRp1995
(dp1996
S'y'
I6
sS'x'
I63
sg7
g9
sg25
g26
sg35
Nsbag2
(g3
g4
NtRp1997
(dp1998
S'y'
I6
sS'x'
I64
sg7
g9
sg25
g202
sg35
Nsbag2
(g3
g4
NtRp1999
(dp2000
S'y'
I6
sS'x'
I65
sg7
g9
sg25
g371
sg35
Nsbag2
(g3
g4
NtRp2001
(dp2002
S'y'
I6
sS'x'
I66
sg7
g9
sg25
g202
sg35
Nsbag2
(g3
g4
NtRp2003
(dp2004
S'y'
I6
sS'x'
I67
sg7
g9
sg25
g371
sg35
Nsbag860
ag2
(g3
g4
NtRp2005
(dp2006
S'y'
I6
sS'x'
I69
sg7
g9
sg25
g371
sg35
Nsbag2
(g3
g4
NtRp2007
(dp2008
S'y'
I6
sS'x'
I70
sg7
g9
sg25
g371
sg35
Nsbag2
(g3
g4
NtRp2009
(dp2010
S'y'
I6
sS'x'
I71
sg7
g9
sg25
g371
sg35
Nsbag2
(g3
g4
NtRp2011
(dp2012
S'y'
I6
sS'x'
I72
sg7
g9
sg25
g371
sg35
Nsbag2
(g3
g4
NtRp2013
(dp2014
S'y'
I6
sS'x'
I73
sg7
g9
sg25
g371
sg35
Nsbag2
(g3
g4
NtRp2015
(dp2016
S'y'
I6
sS'x'
I74
sg7
g9
sg25
g371
sg35
Nsbag2
(g3
g4
NtRp2017
(dp2018
S'y'
I6
sS'x'
I75
sg7
g9
sg25
g371
sg35
Nsbag2
(g3
g4
NtRp2019
(dp2020
S'y'
I6
sS'x'
I76
sg7
g9
sg25
g371
sg35
Nsbag2
(g3
g4
NtRp2021
(dp2022
S'y'
I6
sS'x'
I77
sg7
g9
sg25
g202
sg35
Nsbag2
(g3
g4
NtRp2023
(dp2024
S'y'
I6
sS'x'
I78
sg7
g9
sg25
g26
sg35
Nsbag2
(g3
g4
NtRp2025
(dp2026
S'y'
I6
sS'x'
I79
sg7
g9
sg25
g26
sg35
Nsbag2
(g3
g4
NtRp2027
(dp2028
S'y'
I7
sS'x'
I0
sg7
g9
sg25
g202
sg35
Nsbag2
(g3
g4
NtRp2029
(dp2030
S'y'
I7
sS'x'
I1
sg7
g9
sg25
g371
sg35
Nsbag2
(g3
g4
NtRp2031
(dp2032
S'y'
I7
sS'x'
I2
sg7
g9
sg25
g202
sg35
Nsbag2
(g3
g4
NtRp2033
(dp2034
S'y'
I7
sS'x'
I3
sg7
g9
sg25
g202
sg35
Nsbag2
(g3
g4
NtRp2035
(dp2036
S'y'
I7
sS'x'
I4
sg7
g9
sg25
g371
sg35
Nsbag2
(g3
g4
NtRp2037
(dp2038
S'y'
I7
sS'x'
I5
sg7
g9
sg25
g371
sg35
Nsbag2
(g3
g4
NtRp2039
(dp2040
S'y'
I7
sS'x'
I6
sg7
g9
sg25
g371
sg35
Nsbag2
(g3
g4
NtRp2041
(dp2042
S'y'
I7
sS'x'
I7
sg7
g9
sg25
g371
sg35
Nsbag2
(g3
g4
NtRp2043
(dp2044
S'y'
I7
sS'x'
I8
sg7
g9
sg25
g371
sg35
Nsbag1260
ag2
(g3
g4
NtRp2045
(dp2046
S'y'
I7
sS'x'
I10
sg7
g9
sg25
g371
sg35
Nsbag2
(g3
g4
NtRp2047
(dp2048
S'y'
I7
sS'x'
I11
sg7
g9
sg25
g202
sg35
Nsbag2
(g3
g4
NtRp2049
(dp2050
S'y'
I7
sS'x'
I12
sg7
g9
sg25
g202
sg35
Nsbag2
(g3
g4
NtRp2051
(dp2052
S'y'
I7
sS'x'
I13
sg7
g9
sg25
g371
sg35
Nsbag2
(g3
g4
NtRp2053
(dp2054
S'y'
I7
sS'x'
I14
sg7
g9
sg25
g202
sg35
Nsbag2
(g3
g4
NtRp2055
(dp2056
S'y'
I7
sS'x'
I15
sg7
g9
sg25
g371
sg35
Nsbag2
(g3
g4
NtRp2057
(dp2058
S'y'
I7
sS'x'
I16
sg7
g9
sg25
g371
sg35
Nsbag2
(g3
g4
NtRp2059
(dp2060
S'y'
I7
sS'x'
I17
sg7
g9
sg25
g371
sg35
Nsbag2
(g3
g4
NtRp2061
(dp2062
S'y'
I7
sS'x'
I18
sg7
g9
sg25
g371
sg35
Nsbag2
(g3
g4
NtRp2063
(dp2064
S'y'
I7
sS'x'
I19
sg7
g9
sg25
g371
sg35
Nsbag2
(g3
g4
NtRp2065
(dp2066
S'y'
I7
sS'x'
I20
sg7
g9
sg25
g371
sg35
Nsbag2
(g3
g4
NtRp2067
(dp2068
S'y'
I7
sS'x'
I21
sg7
g9
sg25
g371
sg35
Nsbag2
(g3
g4
NtRp2069
(dp2070
S'y'
I7
sS'x'
I22
sg7
g9
sg25
g371
sg35
Nsbag2
(g3
g4
NtRp2071
(dp2072
S'y'
I7
sS'x'
I23
sg7
g9
sg25
g202
sg35
Nsbag1116
ag506
ag1164
ag2
(g3
g4
NtRp2073
(dp2074
S'y'
I7
sS'x'
I27
sg7
g9
sg25
g371
sg35
Nsbag1100
ag2
(g3
g4
NtRp2075
(dp2076
S'y'
I7
sS'x'
I29
sg7
g9
sg25
g371
sg35
Nsbag2
(g3
g4
NtRp2077
(dp2078
S'y'
I7
sS'x'
I30
sg7
g9
sg25
g371
sg35
Nsbag2
(g3
g4
NtRp2079
(dp2080
S'y'
I7
sS'x'
I31
sg7
g9
sg25
g202
sg35
Nsbag2
(g3
g4
NtRp2081
(dp2082
S'y'
I7
sS'x'
I32
sg7
g9
sg25
g202
sg35
Nsbag2
(g3
g4
NtRp2083
(dp2084
S'y'
I7
sS'x'
I33
sg7
g9
sg25
g202
sg35
Nsbag2
(g3
g4
NtRp2085
(dp2086
S'y'
I7
sS'x'
I34
sg7
g9
sg25
g202
sg35
Nsbag2
(g3
g4
NtRp2087
(dp2088
S'y'
I7
sS'x'
I35
sg7
g9
sg25
g202
sg35
Nsbag2
(g3
g4
NtRp2089
(dp2090
S'y'
I7
sS'x'
I36
sg7
g9
sg25
g202
sg35
Nsbag2
(g3
g4
NtRp2091
(dp2092
S'y'
I7
sS'x'
I37
sg7
g9
sg25
g202
sg35
Nsbag2
(g3
g4
NtRp2093
(dp2094
S'y'
I7
sS'x'
I38
sg7
g9
sg25
g202
sg35
Nsbag2
(g3
g4
NtRp2095
(dp2096
S'y'
I7
sS'x'
I39
sg7
g9
sg25
g202
sg35
Nsbag2
(g3
g4
NtRp2097
(dp2098
S'y'
I7
sS'x'
I40
sg7
g9
sg25
g202
sg35
Nsbag2
(g3
g4
NtRp2099
(dp2100
S'y'
I7
sS'x'
I41
sg7
g9
sg25
g202
sg35
Nsbag2
(g3
g4
NtRp2101
(dp2102
S'y'
I7
sS'x'
I42
sg7
g9
sg25
g371
sg35
Nsbag2
(g3
g4
NtRp2103
(dp2104
S'y'
I7
sS'x'
I43
sg7
g9
sg25
g371
sg35
Nsbag2
(g3
g4
NtRp2105
(dp2106
S'y'
I7
sS'x'
I44
sg7
g9
sg25
g371
sg35
Nsbag2
(g3
g4
NtRp2107
(dp2108
S'y'
I7
sS'x'
I45
sg7
g9
sg25
g371
sg35
Nsbag2
(g3
g4
NtRp2109
(dp2110
S'y'
I7
sS'x'
I46
sg7
g9
sg25
g371
sg35
Nsbag2
(g3
g4
NtRp2111
(dp2112
S'y'
I7
sS'x'
I47
sg7
g9
sg25
g371
sg35
Nsbag2
(g3
g4
NtRp2113
(dp2114
S'y'
I7
sS'x'
I48
sg7
g9
sg25
g202
sg35
Nsbag2
(g3
g4
NtRp2115
(dp2116
S'y'
I7
sS'x'
I49
sg7
g9
sg25
g202
sg35
Nsbag2
(g3
g4
NtRp2117
(dp2118
S'y'
I7
sS'x'
I50
sg7
g9
sg25
g202
sg35
Nsbag2
(g3
g4
NtRp2119
(dp2120
S'y'
I7
sS'x'
I51
sg7
g9
sg25
g202
sg35
Nsbag2
(g3
g4
NtRp2121
(dp2122
S'y'
I7
sS'x'
I52
sg7
g9
sg25
g202
sg35
Nsbag2
(g3
g4
NtRp2123
(dp2124
S'y'
I7
sS'x'
I53
sg7
g9
sg25
g202
sg35
Nsbag2
(g3
g4
NtRp2125
(dp2126
S'y'
I7
sS'x'
I54
sg7
g9
sg25
g202
sg35
Nsbag2
(g3
g4
NtRp2127
(dp2128
S'y'
I7
sS'x'
I55
sg7
g9
sg25
g202
sg35
Nsbag2
(g3
g4
NtRp2129
(dp2130
S'y'
I7
sS'x'
I56
sg7
g9
sg25
g202
sg35
Nsbag2
(g3
g4
NtRp2131
(dp2132
S'y'
I7
sS'x'
I57
sg7
g9
sg25
g371
sg35
Nsbag2
(g3
g4
NtRp2133
(dp2134
S'y'
I7
sS'x'
I58
sg7
g9
sg25
g202
sg35
Nsbag2
(g3
g4
NtRp2135
(dp2136
S'y'
I7
sS'x'
I59
sg7
g9
sg25
g202
sg35
Nsbag2
(g3
g4
NtRp2137
(dp2138
S'y'
I7
sS'x'
I60
sg7
g9
sg25
g202
sg35
Nsbag2
(g3
g4
NtRp2139
(dp2140
S'y'
I7
sS'x'
I61
sg7
g9
sg25
g202
sg35
Nsbag2
(g3
g4
NtRp2141
(dp2142
S'y'
I7
sS'x'
I62
sg7
g9
sg25
g202
sg35
Nsbag2
(g3
g4
NtRp2143
(dp2144
S'y'
I7
sS'x'
I63
sg7
g9
sg25
g202
sg35
Nsbag2
(g3
g4
NtRp2145
(dp2146
S'y'
I7
sS'x'
I64
sg7
g9
sg25
g202
sg35
Nsbag2
(g3
g4
NtRp2147
(dp2148
S'y'
I7
sS'x'
I65
sg7
g9
sg25
g371
sg35
Nsbag2
(g3
g4
NtRp2149
(dp2150
S'y'
I7
sS'x'
I66
sg7
g9
sg25
g202
sg35
Nsbag1180
ag1212
ag764
ag1028
ag2
(g3
g4
NtRp2151
(dp2152
S'y'
I7
sS'x'
I71
sg7
g9
sg25
g371
sg35
Nsbag2
(g3
g4
NtRp2153
(dp2154
S'y'
I7
sS'x'
I72
sg7
g9
sg25
g371
sg35
Nsbag2
(g3
g4
NtRp2155
(dp2156
S'y'
I7
sS'x'
I73
sg7
g9
sg25
g371
sg35
Nsbag2
(g3
g4
NtRp2157
(dp2158
S'y'
I7
sS'x'
I74
sg7
g9
sg25
g371
sg35
Nsbag2
(g3
g4
NtRp2159
(dp2160
S'y'
I7
sS'x'
I75
sg7
g9
sg25
g371
sg35
Nsbag2
(g3
g4
NtRp2161
(dp2162
S'y'
I7
sS'x'
I76
sg7
g9
sg25
g371
sg35
Nsbag2
(g3
g4
NtRp2163
(dp2164
S'y'
I7
sS'x'
I77
sg7
g9
sg25
g202
sg35
Nsbag2
(g3
g4
NtRp2165
(dp2166
S'y'
I7
sS'x'
I78
sg7
g9
sg25
g26
sg35
Nsbag2
(g3
g4
NtRp2167
(dp2168
S'y'
I7
sS'x'
I79
sg7
g9
sg25
g26
sg35
Nsbag2
(g3
g4
NtRp2169
(dp2170
S'y'
I8
sS'x'
I0
sg7
g9
sg25
g202
sg35
Nsbag2
(g3
g4
NtRp2171
(dp2172
S'y'
I8
sS'x'
I1
sg7
g9
sg25
g371
sg35
Nsbag2
(g3
g4
NtRp2173
(dp2174
S'y'
I8
sS'x'
I2
sg7
g9
sg25
g202
sg35
Nsbag2
(g3
g4
NtRp2175
(dp2176
S'y'
I8
sS'x'
I3
sg7
g9
sg25
g202
sg35
Nsbag2
(g3
g4
NtRp2177
(dp2178
S'y'
I8
sS'x'
I4
sg7
g9
sg25
g202
sg35
Nsbag2
(g3
g4
NtRp2179
(dp2180
S'y'
I8
sS'x'
I5
sg7
g9
sg25
g202
sg35
Nsbag2
(g3
g4
NtRp2181
(dp2182
S'y'
I8
sS'x'
I6
sg7
g9
sg25
g202
sg35
Nsbag2
(g3
g4
NtRp2183
(dp2184
S'y'
I8
sS'x'
I7
sg7
g9
sg25
g202
sg35
Nsbag2
(g3
g4
NtRp2185
(dp2186
S'y'
I8
sS'x'
I8
sg7
g9
sg25
g371
sg35
Nsbag2
(g3
g4
NtRp2187
(dp2188
S'y'
I8
sS'x'
I9
sg7
g9
sg25
g202
sg35
Nsbag2
(g3
g4
NtRp2189
(dp2190
S'y'
I8
sS'x'
I10
sg7
g9
sg25
g202
sg35
Nsbag2
(g3
g4
NtRp2191
(dp2192
S'y'
I8
sS'x'
I11
sg7
g9
sg25
g202
sg35
Nsbag2
(g3
g4
NtRp2193
(dp2194
S'y'
I8
sS'x'
I12
sg7
g9
sg25
g202
sg35
Nsbag548
ag2
(g3
g4
NtRp2195
(dp2196
S'y'
I8
sS'x'
I14
sg7
g9
sg25
g202
sg35
Nsbag2
(g3
g4
NtRp2197
(dp2198
S'y'
I8
sS'x'
I15
sg7
g9
sg25
g371
sg35
Nsbag2
(g3
g4
NtRp2199
(dp2200
S'y'
I8
sS'x'
I16
sg7
g9
sg25
g371
sg35
Nsbag2
(g3
g4
NtRp2201
(dp2202
S'y'
I8
sS'x'
I17
sg7
g9
sg25
g371
sg35
Nsbag2
(g3
g4
NtRp2203
(dp2204
S'y'
I8
sS'x'
I18
sg7
g9
sg25
g371
sg35
Nsbag2
(g3
g4
NtRp2205
(dp2206
S'y'
I8
sS'x'
I19
sg7
g9
sg25
g371
sg35
Nsbag2
(g3
g4
NtRp2207
(dp2208
S'y'
I8
sS'x'
I20
sg7
g9
sg25
g371
sg35
Nsbag2
(g3
g4
NtRp2209
(dp2210
S'y'
I8
sS'x'
I21
sg7
g9
sg25
g371
sg35
Nsbag2
(g3
g4
NtRp2211
(dp2212
S'y'
I8
sS'x'
I22
sg7
g9
sg25
g371
sg35
Nsbag2
(g3
g4
NtRp2213
(dp2214
S'y'
I8
sS'x'
I23
sg7
g9
sg25
g371
sg35
Nsbag1092
ag1196
ag724
ag2
(g3
g4
NtRp2215
(dp2216
S'y'
I8
sS'x'
I27
sg7
g9
sg25
g371
sg35
Nsbag2
(g3
g4
NtRp2217
(dp2218
S'y'
I8
sS'x'
I28
sg7
g9
sg25
g371
sg35
Nsbag2
(g3
g4
NtRp2219
(dp2220
S'y'
I8
sS'x'
I29
sg7
g9
sg25
g371
sg35
Nsbag2
(g3
g4
NtRp2221
(dp2222
S'y'
I8
sS'x'
I30
sg7
g9
sg25
g371
sg35
Nsbag2
(g3
g4
NtRp2223
(dp2224
S'y'
I8
sS'x'
I31
sg7
g9
sg25
g202
sg35
Nsbag2
(g3
g4
NtRp2225
(dp2226
S'y'
I8
sS'x'
I32
sg7
g9
sg25
g26
sg35
Nsbag2
(g3
g4
NtRp2227
(dp2228
S'y'
I8
sS'x'
I33
sg7
g9
sg25
g202
sg35
Nsbag2
(g3
g4
NtRp2229
(dp2230
S'y'
I8
sS'x'
I34
sg7
g9
sg25
g371
sg35
Nsbag2
(g3
g4
NtRp2231
(dp2232
S'y'
I8
sS'x'
I35
sg7
g9
sg25
g371
sg35
Nsbag2
(g3
g4
NtRp2233
(dp2234
S'y'
I8
sS'x'
I36
sg7
g9
sg25
g371
sg35
Nsbag2
(g3
g4
NtRp2235
(dp2236
S'y'
I8
sS'x'
I37
sg7
g9
sg25
g371
sg35
Nsbag620
ag2
(g3
g4
NtRp2237
(dp2238
S'y'
I8
sS'x'
I39
sg7
g9
sg25
g371
sg35
Nsbag852
ag2
(g3
g4
NtRp2239
(dp2240
S'y'
I8
sS'x'
I41
sg7
g9
sg25
g371
sg35
Nsbag2
(g3
g4
NtRp2241
(dp2242
S'y'
I8
sS'x'
I42
sg7
g9
sg25
g371
sg35
Nsbag788
ag2
(g3
g4
NtRp2243
(dp2244
S'y'
I8
sS'x'
I44
sg7
g9
sg25
g371
sg35
Nsbag2
(g3
g4
NtRp2245
(dp2246
S'y'
I8
sS'x'
I45
sg7
g9
sg25
g371
sg35
Nsbag2
(g3
g4
NtRp2247
(dp2248
S'y'
I8
sS'x'
I46
sg7
g9
sg25
g371
sg35
Nsbag2
(g3
g4
NtRp2249
(dp2250
S'y'
I8
sS'x'
I47
sg7
g9
sg25
g371
sg35
Nsbag2
(g3
g4
NtRp2251
(dp2252
S'y'
I8
sS'x'
I48
sg7
g9
sg25
g371
sg35
Nsbag2
(g3
g4
NtRp2253
(dp2254
S'y'
I8
sS'x'
I49
sg7
g9
sg25
g371
sg35
Nsbag2
(g3
g4
NtRp2255
(dp2256
S'y'
I8
sS'x'
I50
sg7
g9
sg25
g371
sg35
Nsbag2
(g3
g4
NtRp2257
(dp2258
S'y'
I8
sS'x'
I51
sg7
g9
sg25
g371
sg35
Nsbag2
(g3
g4
NtRp2259
(dp2260
S'y'
I8
sS'x'
I52
sg7
g9
sg25
g371
sg35
Nsbag2
(g3
g4
NtRp2261
(dp2262
S'y'
I8
sS'x'
I53
sg7
g9
sg25
g371
sg35
Nsbag2
(g3
g4
NtRp2263
(dp2264
S'y'
I8
sS'x'
I54
sg7
g9
sg25
g371
sg35
Nsbag932
ag2
(g3
g4
NtRp2265
(dp2266
S'y'
I8
sS'x'
I56
sg7
g9
sg25
g371
sg35
Nsbag692
ag2
(g3
g4
NtRp2267
(dp2268
S'y'
I8
sS'x'
I58
sg7
g9
sg25
g371
sg35
Nsbag2
(g3
g4
NtRp2269
(dp2270
S'y'
I8
sS'x'
I59
sg7
g9
sg25
g371
sg35
Nsbag2
(g3
g4
NtRp2271
(dp2272
S'y'
I8
sS'x'
I60
sg7
g9
sg25
g371
sg35
Nsbag2
(g3
g4
NtRp2273
(dp2274
S'y'
I8
sS'x'
I61
sg7
g9
sg25
g371
sg35
Nsbag2
(g3
g4
NtRp2275
(dp2276
S'y'
I8
sS'x'
I62
sg7
g9
sg25
g371
sg35
Nsbag2
(g3
g4
NtRp2277
(dp2278
S'y'
I8
sS'x'
I63
sg7
g9
sg25
g371
sg35
Nsbag2
(g3
g4
NtRp2279
(dp2280
S'y'
I8
sS'x'
I64
sg7
g9
sg25
g202
sg35
Nsbag2
(g3
g4
NtRp2281
(dp2282
S'y'
I8
sS'x'
I65
sg7
g9
sg25
g371
sg35
Nsbag2
(g3
g4
NtRp2283
(dp2284
S'y'
I8
sS'x'
I66
sg7
g9
sg25
g202
sg35
Nsbag900
ag1268
ag572
ag740
ag2
(g3
g4
NtRp2285
(dp2286
S'y'
I8
sS'x'
I71
sg7
g9
sg25
g371
sg35
Nsbag2
(g3
g4
NtRp2287
(dp2288
S'y'
I8
sS'x'
I72
sg7
g9
sg25
g371
sg35
Nsbag2
(g3
g4
NtRp2289
(dp2290
S'y'
I8
sS'x'
I73
sg7
g9
sg25
g371
sg35
Nsbag2
(g3
g4
NtRp2291
(dp2292
S'y'
I8
sS'x'
I74
sg7
g9
sg25
g371
sg35
Nsbag2
(g3
g4
NtRp2293
(dp2294
S'y'
I8
sS'x'
I75
sg7
g9
sg25
g371
sg35
Nsbag2
(g3
g4
NtRp2295
(dp2296
S'y'
I8
sS'x'
I76
sg7
g9
sg25
g371
sg35
Nsbag2
(g3
g4
NtRp2297
(dp2298
S'y'
I8
sS'x'
I77
sg7
g9
sg25
g202
sg35
Nsbag2
(g3
g4
NtRp2299
(dp2300
S'y'
I8
sS'x'
I78
sg7
g9
sg25
g26
sg35
Nsbag2
(g3
g4
NtRp2301
(dp2302
S'y'
I8
sS'x'
I79
sg7
g9
sg25
g26
sg35
Nsbag2
(g3
g4
NtRp2303
(dp2304
S'y'
I9
sS'x'
I0
sg7
g9
sg25
g202
sg35
Nsbag2
(g3
g4
NtRp2305
(dp2306
S'y'
I9
sS'x'
I1
sg7
g9
sg25
g371
sg35
Nsbag2
(g3
g4
NtRp2307
(dp2308
S'y'
I9
sS'x'
I2
sg7
g9
sg25
g202
sg35
Nsbag2
(g3
g4
NtRp2309
(dp2310
S'y'
I9
sS'x'
I3
sg7
g9
sg25
g26
sg35
Nsbag2
(g3
g4
NtRp2311
(dp2312
S'y'
I9
sS'x'
I4
sg7
g9
sg25
g26
sg35
Nsbag2
(g3
g4
NtRp2313
(dp2314
S'y'
I9
sS'x'
I5
sg7
g9
sg25
g202
sg35
Nsbag2
(g3
g4
NtRp2315
(dp2316
S'y'
I9
sS'x'
I6
sg7
g9
sg25
g371
sg35
Nsbag2
(g3
g4
NtRp2317
(dp2318
S'y'
I9
sS'x'
I7
sg7
g9
sg25
g371
sg35
Nsbag2
(g3
g4
NtRp2319
(dp2320
S'y'
I9
sS'x'
I8
sg7
g9
sg25
g371
sg35
Nsbag1188
ag2
(g3
g4
NtRp2321
(dp2322
S'y'
I9
sS'x'
I10
sg7
g9
sg25
g371
sg35
Nsbag2
(g3
g4
NtRp2323
(dp2324
S'y'
I9
sS'x'
I11
sg7
g9
sg25
g371
sg35
Nsbag2
(g3
g4
NtRp2325
(dp2326
S'y'
I9
sS'x'
I12
sg7
g9
sg25
g371
sg35
Nsbag2
(g3
g4
NtRp2327
(dp2328
S'y'
I9
sS'x'
I13
sg7
g9
sg25
g371
sg35
Nsbag2
(g3
g4
NtRp2329
(dp2330
S'y'
I9
sS'x'
I14
sg7
g9
sg25
g202
sg35
Nsbag2
(g3
g4
NtRp2331
(dp2332
S'y'
I9
sS'x'
I15
sg7
g9
sg25
g371
sg35
Nsbag2
(g3
g4
NtRp2333
(dp2334
S'y'
I9
sS'x'
I16
sg7
g9
sg25
g371
sg35
Nsbag2
(g3
g4
NtRp2335
(dp2336
S'y'
I9
sS'x'
I17
sg7
g9
sg25
g371
sg35
Nsbag2
(g3
g4
NtRp2337
(dp2338
S'y'
I9
sS'x'
I18
sg7
g9
sg25
g371
sg35
Nsbag2
(g3
g4
NtRp2339
(dp2340
S'y'
I9
sS'x'
I19
sg7
g9
sg25
g371
sg35
Nsbag2
(g3
g4
NtRp2341
(dp2342
S'y'
I9
sS'x'
I20
sg7
g9
sg25
g371
sg35
Nsbag2
(g3
g4
NtRp2343
(dp2344
S'y'
I9
sS'x'
I21
sg7
g9
sg25
g371
sg35
Nsbag1068
ag2
(g3
g4
NtRp2345
(dp2346
S'y'
I9
sS'x'
I23
sg7
g9
sg25
g202
sg35
Nsbag2
(g3
g4
NtRp2347
(dp2348
S'y'
I9
sS'x'
I24
sg7
g9
sg25
g202
sg35
Nsbag1084
ag2
(g3
g4
NtRp2349
(dp2350
S'y'
I9
sS'x'
I26
sg7
g9
sg25
g202
sg35
Nsbag2
(g3
g4
NtRp2351
(dp2352
S'y'
I9
sS'x'
I27
sg7
g9
sg25
g202
sg35
Nsbag2
(g3
g4
NtRp2353
(dp2354
S'y'
I9
sS'x'
I28
sg7
g9
sg25
g202
sg35
Nsbag804
ag2
(g3
g4
NtRp2355
(dp2356
S'y'
I9
sS'x'
I30
sg7
g9
sg25
g202
sg35
Nsbag2
(g3
g4
NtRp2357
(dp2358
S'y'
I9
sS'x'
I31
sg7
g9
sg25
g202
sg35
Nsbag2
(g3
g4
NtRp2359
(dp2360
S'y'
I9
sS'x'
I32
sg7
g9
sg25
g202
sg35
Nsbag2
(g3
g4
NtRp2361
(dp2362
S'y'
I9
sS'x'
I33
sg7
g9
sg25
g202
sg35
Nsbag2
(g3
g4
NtRp2363
(dp2364
S'y'
I9
sS'x'
I34
sg7
g9
sg25
g202
sg35
Nsbag2
(g3
g4
NtRp2365
(dp2366
S'y'
I9
sS'x'
I35
sg7
g9
sg25
g202
sg35
Nsbag2
(g3
g4
NtRp2367
(dp2368
S'y'
I9
sS'x'
I36
sg7
g9
sg25
g202
sg35
Nsbag2
(g3
g4
NtRp2369
(dp2370
S'y'
I9
sS'x'
I37
sg7
g9
sg25
g202
sg35
Nsbag2
(g3
g4
NtRp2371
(dp2372
S'y'
I9
sS'x'
I38
sg7
g9
sg25
g202
sg35
Nsbag2
(g3
g4
NtRp2373
(dp2374
S'y'
I9
sS'x'
I39
sg7
g9
sg25
g202
sg35
Nsbag2
(g3
g4
NtRp2375
(dp2376
S'y'
I9
sS'x'
I40
sg7
g9
sg25
g202
sg35
Nsbag2
(g3
g4
NtRp2377
(dp2378
S'y'
I9
sS'x'
I41
sg7
g9
sg25
g202
sg35
Nsbag531
ag2
(g3
g4
NtRp2379
(dp2380
S'y'
I9
sS'x'
I43
sg7
g9
sg25
g371
sg35
Nsbag2
(g3
g4
NtRp2381
(dp2382
S'y'
I9
sS'x'
I44
sg7
g9
sg25
g371
sg35
Nsbag2
(g3
g4
NtRp2383
(dp2384
S'y'
I9
sS'x'
I45
sg7
g9
sg25
g371
sg35
Nsbag2
(g3
g4
NtRp2385
(dp2386
S'y'
I9
sS'x'
I46
sg7
g9
sg25
g371
sg35
Nsbag2
(g3
g4
NtRp2387
(dp2388
S'y'
I9
sS'x'
I47
sg7
g9
sg25
g371
sg35
Nsbag2
(g3
g4
NtRp2389
(dp2390
S'y'
I9
sS'x'
I48
sg7
g9
sg25
g202
sg35
Nsbag2
(g3
g4
NtRp2391
(dp2392
S'y'
I9
sS'x'
I49
sg7
g9
sg25
g202
sg35
Nsbag2
(g3
g4
NtRp2393
(dp2394
S'y'
I9
sS'x'
I50
sg7
g9
sg25
g202
sg35
Nsbag2
(g3
g4
NtRp2395
(dp2396
S'y'
I9
sS'x'
I51
sg7
g9
sg25
g202
sg35
Nsbag2
(g3
g4
NtRp2397
(dp2398
S'y'
I9
sS'x'
I52
sg7
g9
sg25
g202
sg35
Nsbag2
(g3
g4
NtRp2399
(dp2400
S'y'
I9
sS'x'
I53
sg7
g9
sg25
g371
sg35
Nsbag2
(g3
g4
NtRp2401
(dp2402
S'y'
I9
sS'x'
I54
sg7
g9
sg25
g202
sg35
Nsbag556
ag2
(g3
g4
NtRp2403
(dp2404
S'y'
I9
sS'x'
I56
sg7
g9
sg25
g202
sg35
Nsbag2
(g3
g4
NtRp2405
(dp2406
S'y'
I9
sS'x'
I57
sg7
g9
sg25
g202
sg35
Nsbag2
(g3
g4
NtRp2407
(dp2408
S'y'
I9
sS'x'
I58
sg7
g9
sg25
g202
sg35
Nsbag2
(g3
g4
NtRp2409
(dp2410
S'y'
I9
sS'x'
I59
sg7
g9
sg25
g202
sg35
Nsbag2
(g3
g4
NtRp2411
(dp2412
S'y'
I9
sS'x'
I60
sg7
g9
sg25
g202
sg35
Nsbag2
(g3
g4
NtRp2413
(dp2414
S'y'
I9
sS'x'
I61
sg7
g9
sg25
g202
sg35
Nsbag2
(g3
g4
NtRp2415
(dp2416
S'y'
I9
sS'x'
I62
sg7
g9
sg25
g202
sg35
Nsbag2
(g3
g4
NtRp2417
(dp2418
S'y'
I9
sS'x'
I63
sg7
g9
sg25
g202
sg35
Nsbag2
(g3
g4
NtRp2419
(dp2420
S'y'
I9
sS'x'
I64
sg7
g9
sg25
g202
sg35
Nsbag2
(g3
g4
NtRp2421
(dp2422
S'y'
I9
sS'x'
I65
sg7
g9
sg25
g371
sg35
Nsbag2
(g3
g4
NtRp2423
(dp2424
S'y'
I9
sS'x'
I66
sg7
g9
sg25
g202
sg35
Nsbag876
ag2
(g3
g4
NtRp2425
(dp2426
S'y'
I9
sS'x'
I68
sg7
g9
sg25
g202
sg35
Nsbag2
(g3
g4
NtRp2427
(dp2428
S'y'
I9
sS'x'
I69
sg7
g9
sg25
g202
sg35
Nsbag2
(g3
g4
NtRp2429
(dp2430
S'y'
I9
sS'x'
I70
sg7
g9
sg25
g202
sg35
Nsbag2
(g3
g4
NtRp2431
(dp2432
S'y'
I9
sS'x'
I71
sg7
g9
sg25
g202
sg35
Nsbag2
(g3
g4
NtRp2433
(dp2434
S'y'
I9
sS'x'
I72
sg7
g9
sg25
g202
sg35
Nsbag2
(g3
g4
NtRp2435
(dp2436
S'y'
I9
sS'x'
I73
sg7
g9
sg25
g202
sg35
Nsbag2
(g3
g4
NtRp2437
(dp2438
S'y'
I9
sS'x'
I74
sg7
g9
sg25
g202
sg35
Nsbag2
(g3
g4
NtRp2439
(dp2440
S'y'
I9
sS'x'
I75
sg7
g9
sg25
g202
sg35
Nsbag2
(g3
g4
NtRp2441
(dp2442
S'y'
I9
sS'x'
I76
sg7
g9
sg25
g202
sg35
Nsbag2
(g3
g4
NtRp2443
(dp2444
S'y'
I9
sS'x'
I77
sg7
g9
sg25
g202
sg35
Nsbag2
(g3
g4
NtRp2445
(dp2446
S'y'
I9
sS'x'
I78
sg7
g9
sg25
g202
sg35
Nsbag2
(g3
g4
NtRp2447
(dp2448
S'y'
I9
sS'x'
I79
sg7
g9
sg25
g26
sg35
Nsbag2
(g3
g4
NtRp2449
(dp2450
S'y'
I10
sS'x'
I0
sg7
g9
sg25
g202
sg35
Nsbag2
(g3
g4
NtRp2451
(dp2452
S'y'
I10
sS'x'
I1
sg7
g9
sg25
g371
sg35
Nsbag2
(g3
g4
NtRp2453
(dp2454
S'y'
I10
sS'x'
I2
sg7
g9
sg25
g202
sg35
Nsbag2
(g3
g4
NtRp2455
(dp2456
S'y'
I10
sS'x'
I3
sg7
g9
sg25
g26
sg35
Nsbag2
(g3
g4
NtRp2457
(dp2458
S'y'
I10
sS'x'
I4
sg7
g9
sg25
g26
sg35
Nsbag2
(g3
g4
NtRp2459
(dp2460
S'y'
I10
sS'x'
I5
sg7
g9
sg25
g202
sg35
Nsbag2
(g3
g4
NtRp2461
(dp2462
S'y'
I10
sS'x'
I6
sg7
g9
sg25
g371
sg35
Nsbag2
(g3
g4
NtRp2463
(dp2464
S'y'
I10
sS'x'
I7
sg7
g9
sg25
g371
sg35
Nsbag2
(g3
g4
NtRp2465
(dp2466
S'y'
I10
sS'x'
I8
sg7
g9
sg25
g371
sg35
Nsbag2
(g3
g4
NtRp2467
(dp2468
S'y'
I10
sS'x'
I9
sg7
g9
sg25
g371
sg35
Nsbag948
ag956
ag2
(g3
g4
NtRp2469
(dp2470
S'y'
I10
sS'x'
I12
sg7
g9
sg25
g371
sg35
Nsbag1244
ag1004
ag2
(g3
g4
NtRp2471
(dp2472
S'y'
I10
sS'x'
I15
sg7
g9
sg25
g371
sg35
Nsbag2
(g3
g4
NtRp2473
(dp2474
S'y'
I10
sS'x'
I16
sg7
g9
sg25
g371
sg35
Nsbag2
(g3
g4
NtRp2475
(dp2476
S'y'
I10
sS'x'
I17
sg7
g9
sg25
g371
sg35
Nsbag2
(g3
g4
NtRp2477
(dp2478
S'y'
I10
sS'x'
I18
sg7
g9
sg25
g371
sg35
Nsbag2
(g3
g4
NtRp2479
(dp2480
S'y'
I10
sS'x'
I19
sg7
g9
sg25
g371
sg35
Nsbag972
ag2
(g3
g4
NtRp2481
(dp2482
S'y'
I10
sS'x'
I21
sg7
g9
sg25
g371
sg35
Nsbag2
(g3
g4
NtRp2483
(dp2484
S'y'
I10
sS'x'
I22
sg7
g9
sg25
g371
sg35
Nsbag2
(g3
g4
NtRp2485
(dp2486
S'y'
I10
sS'x'
I23
sg7
g9
sg25
g202
sg35
Nsbag2
(g3
g4
NtRp2487
(dp2488
S'y'
I10
sS'x'
I24
sg7
g9
sg25
g202
sg35
Nsbag475
ag2
(g3
g4
NtRp2489
(dp2490
S'y'
I10
sS'x'
I26
sg7
g9
sg25
g202
sg35
Nsbag2
(g3
g4
NtRp2491
(dp2492
S'y'
I10
sS'x'
I27
sg7
g9
sg25
g202
sg35
Nsbag916
ag612
ag2
(g3
g4
NtRp2493
(dp2494
S'y'
I10
sS'x'
I30
sg7
g9
sg25
g371
sg35
Nsbag2
(g3
g4
NtRp2495
(dp2496
S'y'
I10
sS'x'
I31
sg7
g9
sg25
g371
sg35
Nsbag2
(g3
g4
NtRp2497
(dp2498
S'y'
I10
sS'x'
I32
sg7
g9
sg25
g371
sg35
Nsbag2
(g3
g4
NtRp2499
(dp2500
S'y'
I10
sS'x'
I33
sg7
g9
sg25
g371
sg35
Nsbag2
(g3
g4
NtRp2501
(dp2502
S'y'
I10
sS'x'
I34
sg7
g9
sg25
g371
sg35
Nsbag2
(g3
g4
NtRp2503
(dp2504
S'y'
I10
sS'x'
I35
sg7
g9
sg25
g371
sg35
Nsbag2
(g3
g4
NtRp2505
(dp2506
S'y'
I10
sS'x'
I36
sg7
g9
sg25
g371
sg35
Nsbag2
(g3
g4
NtRp2507
(dp2508
S'y'
I10
sS'x'
I37
sg7
g9
sg25
g371
sg35
Nsbag2
(g3
g4
NtRp2509
(dp2510
S'y'
I10
sS'x'
I38
sg7
g9
sg25
g202
sg35
Nsbag2
(g3
g4
NtRp2511
(dp2512
S'y'
I10
sS'x'
I39
sg7
g9
sg25
g26
sg35
Nsbag2
(g3
g4
NtRp2513
(dp2514
S'y'
I10
sS'x'
I40
sg7
g9
sg25
g26
sg35
Nsbag2
(g3
g4
NtRp2515
(dp2516
S'y'
I10
sS'x'
I41
sg7
g9
sg25
g202
sg35
Nsbag2
(g3
g4
NtRp2517
(dp2518
S'y'
I10
sS'x'
I42
sg7
g9
sg25
g371
sg35
Nsbag716
ag2
(g3
g4
NtRp2519
(dp2520
S'y'
I10
sS'x'
I44
sg7
g9
sg25
g371
sg35
Nsbag2
(g3
g4
NtRp2521
(dp2522
S'y'
I10
sS'x'
I45
sg7
g9
sg25
g371
sg35
Nsbag2
(g3
g4
NtRp2523
(dp2524
S'y'
I10
sS'x'
I46
sg7
g9
sg25
g371
sg35
Nsbag2
(g3
g4
NtRp2525
(dp2526
S'y'
I10
sS'x'
I47
sg7
g9
sg25
g371
sg35
Nsbag2
(g3
g4
NtRp2527
(dp2528
S'y'
I10
sS'x'
I48
sg7
g9
sg25
g202
sg35
Nsbag2
(g3
g4
NtRp2529
(dp2530
S'y'
I10
sS'x'
I49
sg7
g9
sg25
g26
sg35
Nsbag2
(g3
g4
NtRp2531
(dp2532
S'y'
I10
sS'x'
I50
sg7
g9
sg25
g26
sg35
Nsbag2
(g3
g4
NtRp2533
(dp2534
S'y'
I10
sS'x'
I51
sg7
g9
sg25
g26
sg35
Nsbag2
(g3
g4
NtRp2535
(dp2536
S'y'
I10
sS'x'
I52
sg7
g9
sg25
g202
sg35
Nsbag2
(g3
g4
NtRp2537
(dp2538
S'y'
I10
sS'x'
I53
sg7
g9
sg25
g371
sg35
Nsbag2
(g3
g4
NtRp2539
(dp2540
S'y'
I10
sS'x'
I54
sg7
g9
sg25
g202
sg35
Nsbag2
(g3
g4
NtRp2541
(dp2542
S'y'
I10
sS'x'
I55
sg7
g9
sg25
g371
sg35
Nsbag2
(g3
g4
NtRp2543
(dp2544
S'y'
I10
sS'x'
I56
sg7
g9
sg25
g371
sg35
Nsbag2
(g3
g4
NtRp2545
(dp2546
S'y'
I10
sS'x'
I57
sg7
g9
sg25
g371
sg35
Nsbag2
(g3
g4
NtRp2547
(dp2548
S'y'
I10
sS'x'
I58
sg7
g9
sg25
g371
sg35
Nsbag2
(g3
g4
NtRp2549
(dp2550
S'y'
I10
sS'x'
I59
sg7
g9
sg25
g371
sg35
Nsbag2
(g3
g4
NtRp2551
(dp2552
S'y'
I10
sS'x'
I60
sg7
g9
sg25
g371
sg35
Nsbag2
(g3
g4
NtRp2553
(dp2554
S'y'
I10
sS'x'
I61
sg7
g9
sg25
g371
sg35
Nsbag498
ag2
(g3
g4
NtRp2555
(dp2556
S'y'
I10
sS'x'
I63
sg7
g9
sg25
g371
sg35
Nsbag636
ag812
ag836
ag2
(g3
g4
NtRp2557
(dp2558
S'y'
I10
sS'x'
I67
sg7
g9
sg25
g371
sg35
Nsbag596
ag1204
ag748
ag2
(g3
g4
NtRp2559
(dp2560
S'y'
I10
sS'x'
I71
sg7
g9
sg25
g371
sg35
Nsbag2
(g3
g4
NtRp2561
(dp2562
S'y'
I10
sS'x'
I72
sg7
g9
sg25
g371
sg35
Nsbag2
(g3
g4
NtRp2563
(dp2564
S'y'
I10
sS'x'
I73
sg7
g9
sg25
g371
sg35
Nsbag2
(g3
g4
NtRp2565
(dp2566
S'y'
I10
sS'x'
I74
sg7
g9
sg25
g371
sg35
Nsbag2
(g3
g4
NtRp2567
(dp2568
S'y'
I10
sS'x'
I75
sg7
g9
sg25
g371
sg35
Nsbag2
(g3
g4
NtRp2569
(dp2570
S'y'
I10
sS'x'
I76
sg7
g9
sg25
g371
sg35
Nsbag2
(g3
g4
NtRp2571
(dp2572
S'y'
I10
sS'x'
I77
sg7
g9
sg25
g371
sg35
Nsbag2
(g3
g4
NtRp2573
(dp2574
S'y'
I10
sS'x'
I78
sg7
g9
sg25
g202
sg35
Nsbag2
(g3
g4
NtRp2575
(dp2576
S'y'
I10
sS'x'
I79
sg7
g9
sg25
g26
sg35
Nsbag2
(g3
g4
NtRp2577
(dp2578
S'y'
I11
sS'x'
I0
sg7
g9
sg25
g202
sg35
Nsbag2
(g3
g4
NtRp2579
(dp2580
S'y'
I11
sS'x'
I1
sg7
g9
sg25
g371
sg35
Nsbag2
(g3
g4
NtRp2581
(dp2582
S'y'
I11
sS'x'
I2
sg7
g9
sg25
g202
sg35
Nsbag2
(g3
g4
NtRp2583
(dp2584
S'y'
I11
sS'x'
I3
sg7
g9
sg25
g26
sg35
Nsbag2
(g3
g4
NtRp2585
(dp2586
S'y'
I11
sS'x'
I4
sg7
g9
sg25
g26
sg35
Nsbag2
(g3
g4
NtRp2587
(dp2588
S'y'
I11
sS'x'
I5
sg7
g9
sg25
g202
sg35
Nsbag2
(g3
g4
NtRp2589
(dp2590
S'y'
I11
sS'x'
I6
sg7
g9
sg25
g371
sg35
Nsbag2
(g3
g4
NtRp2591
(dp2592
S'y'
I11
sS'x'
I7
sg7
g9
sg25
g371
sg35
Nsbag2
(g3
g4
NtRp2593
(dp2594
S'y'
I11
sS'x'
I8
sg7
g9
sg25
g371
sg35
Nsbag2
(g3
g4
NtRp2595
(dp2596
S'y'
I11
sS'x'
I9
sg7
g9
sg25
g371
sg35
Nsbag2
(g3
g4
NtRp2597
(dp2598
S'y'
I11
sS'x'
I10
sg7
g9
sg25
g371
sg35
Nsbag756
ag2
(g3
g4
NtRp2599
(dp2600
S'y'
I11
sS'x'
I12
sg7
g9
sg25
g371
sg35
Nsbag676
ag2
(g3
g4
NtRp2601
(dp2602
S'y'
I11
sS'x'
I14
sg7
g9
sg25
g202
sg35
Nsbag988
ag2
(g3
g4
NtRp2603
(dp2604
S'y'
I11
sS'x'
I16
sg7
g9
sg25
g371
sg35
Nsbag2
(g3
g4
NtRp2605
(dp2606
S'y'
I11
sS'x'
I17
sg7
g9
sg25
g371
sg35
Nsbag2
(g3
g4
NtRp2607
(dp2608
S'y'
I11
sS'x'
I18
sg7
g9
sg25
g371
sg35
Nsbag2
(g3
g4
NtRp2609
(dp2610
S'y'
I11
sS'x'
I19
sg7
g9
sg25
g371
sg35
Nsbag660
ag588
ag796
ag2
(g3
g4
NtRp2611
(dp2612
S'y'
I11
sS'x'
I23
sg7
g9
sg25
g202
sg35
Nsbag2
(g3
g4
NtRp2613
(dp2614
S'y'
I11
sS'x'
I24
sg7
g9
sg25
g202
sg35
Nsbag436
ag2
(g3
g4
NtRp2615
(dp2616
S'y'
I11
sS'x'
I26
sg7
g9
sg25
g202
sg35
Nsbag2
(g3
g4
NtRp2617
(dp2618
S'y'
I11
sS'x'
I27
sg7
g9
sg25
g202
sg35
Nsbag1060
ag2
(g3
g4
NtRp2619
(dp2620
S'y'
I11
sS'x'
I29
sg7
g9
sg25
g371
sg35
Nsbag908
ag2
(g3
g4
NtRp2621
(dp2622
S'y'
I11
sS'x'
I31
sg7
g9
sg25
g371
sg35
Nsbag2
(g3
g4
NtRp2623
(dp2624
S'y'
I11
sS'x'
I32
sg7
g9
sg25
g371
sg35
Nsbag2
(g3
g4
NtRp2625
(dp2626
S'y'
I11
sS'x'
I33
sg7
g9
sg25
g371
sg35
Nsbag2
(g3
g4
NtRp2627
(dp2628
S'y'
I11
sS'x'
I34
sg7
g9
sg25
g371
sg35
Nsbag2
(g3
g4
NtRp2629
(dp2630
S'y'
I11
sS'x'
I35
sg7
g9
sg25
g371
sg35
Nsbag2
(g3
g4
NtRp2631
(dp2632
S'y'
I11
sS'x'
I36
sg7
g9
sg25
g371
sg35
Nsbag2
(g3
g4
NtRp2633
(dp2634
S'y'
I11
sS'x'
I37
sg7
g9
sg25
g371
sg35
Nsbag2
(g3
g4
NtRp2635
(dp2636
S'y'
I11
sS'x'
I38
sg7
g9
sg25
g202
sg35
Nsbag2
(g3
g4
NtRp2637
(dp2638
S'y'
I11
sS'x'
I39
sg7
g9
sg25
g26
sg35
Nsbag2
(g3
g4
NtRp2639
(dp2640
S'y'
I11
sS'x'
I40
sg7
g9
sg25
g26
sg35
Nsbag2
(g3
g4
NtRp2641
(dp2642
S'y'
I11
sS'x'
I41
sg7
g9
sg25
g202
sg35
Nsbag684
ag844
ag708
ag2
(g3
g4
NtRp2643
(dp2644
S'y'
I11
sS'x'
I45
sg7
g9
sg25
g371
sg35
Nsbag2
(g3
g4
NtRp2645
(dp2646
S'y'
I11
sS'x'
I46
sg7
g9
sg25
g371
sg35
Nsbag2
(g3
g4
NtRp2647
(dp2648
S'y'
I11
sS'x'
I47
sg7
g9
sg25
g371
sg35
Nsbag2
(g3
g4
NtRp2649
(dp2650
S'y'
I11
sS'x'
I48
sg7
g9
sg25
g202
sg35
Nsbag2
(g3
g4
NtRp2651
(dp2652
S'y'
I11
sS'x'
I49
sg7
g9
sg25
g26
sg35
Nsbag2
(g3
g4
NtRp2653
(dp2654
S'y'
I11
sS'x'
I50
sg7
g9
sg25
g26
sg35
Nsbag2
(g3
g4
NtRp2655
(dp2656
S'y'
I11
sS'x'
I51
sg7
g9
sg25
g26
sg35
Nsbag2
(g3
g4
NtRp2657
(dp2658
S'y'
I11
sS'x'
I52
sg7
g9
sg25
g202
sg35
Nsbag1020
ag2
(g3
g4
NtRp2659
(dp2660
S'y'
I11
sS'x'
I54
sg7
g9
sg25
g202
sg35
Nsbag2
(g3
g4
NtRp2661
(dp2662
S'y'
I11
sS'x'
I55
sg7
g9
sg25
g371
sg35
Nsbag2
(g3
g4
NtRp2663
(dp2664
S'y'
I11
sS'x'
I56
sg7
g9
sg25
g202
sg35
Nsbag2
(g3
g4
NtRp2665
(dp2666
S'y'
I11
sS'x'
I57
sg7
g9
sg25
g202
sg35
Nsbag2
(g3
g4
NtRp2667
(dp2668
S'y'
I11
sS'x'
I58
sg7
g9
sg25
g202
sg35
Nsbag2
(g3
g4
NtRp2669
(dp2670
S'y'
I11
sS'x'
I59
sg7
g9
sg25
g202
sg35
Nsbag2
(g3
g4
NtRp2671
(dp2672
S'y'
I11
sS'x'
I60
sg7
g9
sg25
g202
sg35
Nsbag2
(g3
g4
NtRp2673
(dp2674
S'y'
I11
sS'x'
I61
sg7
g9
sg25
g202
sg35
Nsbag2
(g3
g4
NtRp2675
(dp2676
S'y'
I11
sS'x'
I62
sg7
g9
sg25
g202
sg35
Nsbag2
(g3
g4
NtRp2677
(dp2678
S'y'
I11
sS'x'
I63
sg7
g9
sg25
g202
sg35
Nsbag2
(g3
g4
NtRp2679
(dp2680
S'y'
I11
sS'x'
I64
sg7
g9
sg25
g202
sg35
Nsbag2
(g3
g4
NtRp2681
(dp2682
S'y'
I11
sS'x'
I65
sg7
g9
sg25
g202
sg35
Nsbag2
(g3
g4
NtRp2683
(dp2684
S'y'
I11
sS'x'
I66
sg7
g9
sg25
g202
sg35
Nsbag2
(g3
g4
NtRp2685
(dp2686
S'y'
I11
sS'x'
I67
sg7
g9
sg25
g202
sg35
Nsbag2
(g3
g4
NtRp2687
(dp2688
S'y'
I11
sS'x'
I68
sg7
g9
sg25
g202
sg35
Nsbag2
(g3
g4
NtRp2689
(dp2690
S'y'
I11
sS'x'
I69
sg7
g9
sg25
g371
sg35
Nsbag2
(g3
g4
NtRp2691
(dp2692
S'y'
I11
sS'x'
I70
sg7
g9
sg25
g202
sg35
Nsbag2
(g3
g4
NtRp2693
(dp2694
S'y'
I11
sS'x'
I71
sg7
g9
sg25
g202
sg35
Nsbag2
(g3
g4
NtRp2695
(dp2696
S'y'
I11
sS'x'
I72
sg7
g9
sg25
g202
sg35
Nsbag2
(g3
g4
NtRp2697
(dp2698
S'y'
I11
sS'x'
I73
sg7
g9
sg25
g202
sg35
Nsbag2
(g3
g4
NtRp2699
(dp2700
S'y'
I11
sS'x'
I74
sg7
g9
sg25
g202
sg35
Nsbag2
(g3
g4
NtRp2701
(dp2702
S'y'
I11
sS'x'
I75
sg7
g9
sg25
g202
sg35
Nsbag2
(g3
g4
NtRp2703
(dp2704
S'y'
I11
sS'x'
I76
sg7
g9
sg25
g202
sg35
Nsbag2
(g3
g4
NtRp2705
(dp2706
S'y'
I11
sS'x'
I77
sg7
g9
sg25
g202
sg35
Nsbag2
(g3
g4
NtRp2707
(dp2708
S'y'
I11
sS'x'
I78
sg7
g9
sg25
g202
sg35
Nsbag2
(g3
g4
NtRp2709
(dp2710
S'y'
I11
sS'x'
I79
sg7
g9
sg25
g26
sg35
Nsbag2
(g3
g4
NtRp2711
(dp2712
S'y'
I12
sS'x'
I0
sg7
g9
sg25
g202
sg35
Nsbag884
ag2
(g3
g4
NtRp2713
(dp2714
S'y'
I12
sS'x'
I2
sg7
g9
sg25
g202
sg35
Nsbag2
(g3
g4
NtRp2715
(dp2716
S'y'
I12
sS'x'
I3
sg7
g9
sg25
g202
sg35
Nsbag2
(g3
g4
NtRp2717
(dp2718
S'y'
I12
sS'x'
I4
sg7
g9
sg25
g202
sg35
Nsbag2
(g3
g4
NtRp2719
(dp2720
S'y'
I12
sS'x'
I5
sg7
g9
sg25
g202
sg35
Nsbag2
(g3
g4
NtRp2721
(dp2722
S'y'
I12
sS'x'
I6
sg7
g9
sg25
g202
sg35
Nsbag2
(g3
g4
NtRp2723
(dp2724
S'y'
I12
sS'x'
I7
sg7
g9
sg25
g202
sg35
Nsbag2
(g3
g4
NtRp2725
(dp2726
S'y'
I12
sS'x'
I8
sg7
g9
sg25
g202
sg35
Nsbag2
(g3
g4
NtRp2727
(dp2728
S'y'
I12
sS'x'
I9
sg7
g9
sg25
g202
sg35
Nsbag2
(g3
g4
NtRp2729
(dp2730
S'y'
I12
sS'x'
I10
sg7
g9
sg25
g371
sg35
Nsbag2
(g3
g4
NtRp2731
(dp2732
S'y'
I12
sS'x'
I11
sg7
g9
sg25
g202
sg35
Nsbag2
(g3
g4
NtRp2733
(dp2734
S'y'
I12
sS'x'
I12
sg7
g9
sg25
g202
sg35
Nsbag2
(g3
g4
NtRp2735
(dp2736
S'y'
I12
sS'x'
I13
sg7
g9
sg25
g202
sg35
Nsbag2
(g3
g4
NtRp2737
(dp2738
S'y'
I12
sS'x'
I14
sg7
g9
sg25
g202
sg35
Nsbag2
(g3
g4
NtRp2739
(dp2740
S'y'
I12
sS'x'
I15
sg7
g9
sg25
g202
sg35
Nsbag2
(g3
g4
NtRp2741
(dp2742
S'y'
I12
sS'x'
I16
sg7
g9
sg25
g202
sg35
Nsbag2
(g3
g4
NtRp2743
(dp2744
S'y'
I12
sS'x'
I17
sg7
g9
sg25
g371
sg35
Nsbag2
(g3
g4
NtRp2745
(dp2746
S'y'
I12
sS'x'
I18
sg7
g9
sg25
g202
sg35
Nsbag2
(g3
g4
NtRp2747
(dp2748
S'y'
I12
sS'x'
I19
sg7
g9
sg25
g202
sg35
Nsbag2
(g3
g4
NtRp2749
(dp2750
S'y'
I12
sS'x'
I20
sg7
g9
sg25
g202
sg35
Nsbag490
ag2
(g3
g4
NtRp2751
(dp2752
S'y'
I12
sS'x'
I22
sg7
g9
sg25
g202
sg35
Nsbag2
(g3
g4
NtRp2753
(dp2754
S'y'
I12
sS'x'
I23
sg7
g9
sg25
g202
sg35
Nsbag2
(g3
g4
NtRp2755
(dp2756
S'y'
I12
sS'x'
I24
sg7
g9
sg25
g202
sg35
Nsbag523
ag2
(g3
g4
NtRp2757
(dp2758
S'y'
I12
sS'x'
I26
sg7
g9
sg25
g202
sg35
Nsbag2
(g3
g4
NtRp2759
(dp2760
S'y'
I12
sS'x'
I27
sg7
g9
sg25
g202
sg35
Nsbag2
(g3
g4
NtRp2761
(dp2762
S'y'
I12
sS'x'
I28
sg7
g9
sg25
g371
sg35
Nsbag2
(g3
g4
NtRp2763
(dp2764
S'y'
I12
sS'x'
I29
sg7
g9
sg25
g371
sg35
Nsbag2
(g3
g4
NtRp2765
(dp2766
S'y'
I12
sS'x'
I30
sg7
g9
sg25
g371
sg35
Nsbag2
(g3
g4
NtRp2767
(dp2768
S'y'
I12
sS'x'
I31
sg7
g9
sg25
g371
sg35
Nsbag2
(g3
g4
NtRp2769
(dp2770
S'y'
I12
sS'x'
I32
sg7
g9
sg25
g371
sg35
Nsbag2
(g3
g4
NtRp2771
(dp2772
S'y'
I12
sS'x'
I33
sg7
g9
sg25
g371
sg35
Nsbag2
(g3
g4
NtRp2773
(dp2774
S'y'
I12
sS'x'
I34
sg7
g9
sg25
g371
sg35
Nsbag2
(g3
g4
NtRp2775
(dp2776
S'y'
I12
sS'x'
I35
sg7
g9
sg25
g371
sg35
Nsbag2
(g3
g4
NtRp2777
(dp2778
S'y'
I12
sS'x'
I36
sg7
g9
sg25
g371
sg35
Nsbag2
(g3
g4
NtRp2779
(dp2780
S'y'
I12
sS'x'
I37
sg7
g9
sg25
g371
sg35
Nsbag2
(g3
g4
NtRp2781
(dp2782
S'y'
I12
sS'x'
I38
sg7
g9
sg25
g202
sg35
Nsbag2
(g3
g4
NtRp2783
(dp2784
S'y'
I12
sS'x'
I39
sg7
g9
sg25
g26
sg35
Nsbag2
(g3
g4
NtRp2785
(dp2786
S'y'
I12
sS'x'
I40
sg7
g9
sg25
g26
sg35
Nsbag2
(g3
g4
NtRp2787
(dp2788
S'y'
I12
sS'x'
I41
sg7
g9
sg25
g202
sg35
Nsbag1132
ag2
(g3
g4
NtRp2789
(dp2790
S'y'
I12
sS'x'
I43
sg7
g9
sg25
g371
sg35
Nsbag1156
ag2
(g3
g4
NtRp2791
(dp2792
S'y'
I12
sS'x'
I45
sg7
g9
sg25
g371
sg35
Nsbag2
(g3
g4
NtRp2793
(dp2794
S'y'
I12
sS'x'
I46
sg7
g9
sg25
g371
sg35
Nsbag2
(g3
g4
NtRp2795
(dp2796
S'y'
I12
sS'x'
I47
sg7
g9
sg25
g371
sg35
Nsbag2
(g3
g4
NtRp2797
(dp2798
S'y'
I12
sS'x'
I48
sg7
g9
sg25
g202
sg35
Nsbag2
(g3
g4
NtRp2799
(dp2800
S'y'
I12
sS'x'
I49
sg7
g9
sg25
g26
sg35
Nsbag2
(g3
g4
NtRp2801
(dp2802
S'y'
I12
sS'x'
I50
sg7
g9
sg25
g26
sg35
Nsbag2
(g3
g4
NtRp2803
(dp2804
S'y'
I12
sS'x'
I51
sg7
g9
sg25
g26
sg35
Nsbag2
(g3
g4
NtRp2805
(dp2806
S'y'
I12
sS'x'
I52
sg7
g9
sg25
g202
sg35
Nsbag892
ag2
(g3
g4
NtRp2807
(dp2808
S'y'
I12
sS'x'
I54
sg7
g9
sg25
g202
sg35
Nsbag1076
ag2
(g3
g4
NtRp2809
(dp2810
S'y'
I12
sS'x'
I56
sg7
g9
sg25
g202
sg35
Nsbag2
(g3
g4
NtRp2811
(dp2812
S'y'
I12
sS'x'
I57
sg7
g9
sg25
g26
sg35
Nsbag2
(g3
g4
NtRp2813
(dp2814
S'y'
I12
sS'x'
I58
sg7
g9
sg25
g26
sg35
Nsbag2
(g3
g4
NtRp2815
(dp2816
S'y'
I12
sS'x'
I59
sg7
g9
sg25
g26
sg35
Nsbag2
(g3
g4
NtRp2817
(dp2818
S'y'
I12
sS'x'
I60
sg7
g9
sg25
g202
sg35
Nsbag2
(g3
g4
NtRp2819
(dp2820
S'y'
I12
sS'x'
I61
sg7
g9
sg25
g202
sg35
Nsbag2
(g3
g4
NtRp2821
(dp2822
S'y'
I12
sS'x'
I62
sg7
g9
sg25
g202
sg35
Nsbag2
(g3
g4
NtRp2823
(dp2824
S'y'
I12
sS'x'
I63
sg7
g9
sg25
g202
sg35
Nsbag2
(g3
g4
NtRp2825
(dp2826
S'y'
I12
sS'x'
I64
sg7
g9
sg25
g202
sg35
Nsbag2
(g3
g4
NtRp2827
(dp2828
S'y'
I12
sS'x'
I65
sg7
g9
sg25
g202
sg35
Nsbag2
(g3
g4
NtRp2829
(dp2830
S'y'
I12
sS'x'
I66
sg7
g9
sg25
g202
sg35
Nsbag2
(g3
g4
NtRp2831
(dp2832
S'y'
I12
sS'x'
I67
sg7
g9
sg25
g202
sg35
Nsbag2
(g3
g4
NtRp2833
(dp2834
S'y'
I12
sS'x'
I68
sg7
g9
sg25
g202
sg35
Nsbag1228
ag780
ag2
(g3
g4
NtRp2835
(dp2836
S'y'
I12
sS'x'
I71
sg7
g9
sg25
g371
sg35
Nsbag2
(g3
g4
NtRp2837
(dp2838
S'y'
I12
sS'x'
I72
sg7
g9
sg25
g371
sg35
Nsbag2
(g3
g4
NtRp2839
(dp2840
S'y'
I12
sS'x'
I73
sg7
g9
sg25
g371
sg35
Nsbag2
(g3
g4
NtRp2841
(dp2842
S'y'
I12
sS'x'
I74
sg7
g9
sg25
g371
sg35
Nsbag2
(g3
g4
NtRp2843
(dp2844
S'y'
I12
sS'x'
I75
sg7
g9
sg25
g371
sg35
Nsbag2
(g3
g4
NtRp2845
(dp2846
S'y'
I12
sS'x'
I76
sg7
g9
sg25
g371
sg35
Nsbag2
(g3
g4
NtRp2847
(dp2848
S'y'
I12
sS'x'
I77
sg7
g9
sg25
g202
sg35
Nsbag2
(g3
g4
NtRp2849
(dp2850
S'y'
I12
sS'x'
I78
sg7
g9
sg25
g26
sg35
Nsbag2
(g3
g4
NtRp2851
(dp2852
S'y'
I12
sS'x'
I79
sg7
g9
sg25
g26
sg35
Nsbag2
(g3
g4
NtRp2853
(dp2854
S'y'
I13
sS'x'
I0
sg7
g9
sg25
g202
sg35
Nsbag2
(g3
g4
NtRp2855
(dp2856
S'y'
I13
sS'x'
I1
sg7
g9
sg25
g371
sg35
Nsbag2
(g3
g4
NtRp2857
(dp2858
S'y'
I13
sS'x'
I2
sg7
g9
sg25
g371
sg35
Nsbag2
(g3
g4
NtRp2859
(dp2860
S'y'
I13
sS'x'
I3
sg7
g9
sg25
g371
sg35
Nsbag2
(g3
g4
NtRp2861
(dp2862
S'y'
I13
sS'x'
I4
sg7
g9
sg25
g371
sg35
Nsbag2
(g3
g4
NtRp2863
(dp2864
S'y'
I13
sS'x'
I5
sg7
g9
sg25
g371
sg35
Nsbag2
(g3
g4
NtRp2865
(dp2866
S'y'
I13
sS'x'
I6
sg7
g9
sg25
g371
sg35
Nsbag2
(g3
g4
NtRp2867
(dp2868
S'y'
I13
sS'x'
I7
sg7
g9
sg25
g202
sg35
Nsbag980
ag2
(g3
g4
NtRp2869
(dp2870
S'y'
I13
sS'x'
I9
sg7
g9
sg25
g371
sg35
Nsbag2
(g3
g4
NtRp2871
(dp2872
S'y'
I13
sS'x'
I10
sg7
g9
sg25
g371
sg35
Nsbag2
(g3
g4
NtRp2873
(dp2874
S'y'
I13
sS'x'
I11
sg7
g9
sg25
g371
sg35
Nsbag2
(g3
g4
NtRp2875
(dp2876
S'y'
I13
sS'x'
I12
sg7
g9
sg25
g371
sg35
Nsbag2
(g3
g4
NtRp2877
(dp2878
S'y'
I13
sS'x'
I13
sg7
g9
sg25
g371
sg35
Nsbag2
(g3
g4
NtRp2879
(dp2880
S'y'
I13
sS'x'
I14
sg7
g9
sg25
g202
sg35
Nsbag2
(g3
g4
NtRp2881
(dp2882
S'y'
I13
sS'x'
I15
sg7
g9
sg25
g26
sg35
Nsbag2
(g3
g4
NtRp2883
(dp2884
S'y'
I13
sS'x'
I16
sg7
g9
sg25
g202
sg35
Nsbag2
(g3
g4
NtRp2885
(dp2886
S'y'
I13
sS'x'
I17
sg7
g9
sg25
g371
sg35
Nsbag2
(g3
g4
NtRp2887
(dp2888
S'y'
I13
sS'x'
I18
sg7
g9
sg25
g202
sg35
Nsbag2
(g3
g4
NtRp2889
(dp2890
S'y'
I13
sS'x'
I19
sg7
g9
sg25
g26
sg35
Nsbag2
(g3
g4
NtRp2891
(dp2892
S'y'
I13
sS'x'
I20
sg7
g9
sg25
g202
sg35
Nsbag2
(g3
g4
NtRp2893
(dp2894
S'y'
I13
sS'x'
I21
sg7
g9
sg25
g371
sg35
Nsbag2
(g3
g4
NtRp2895
(dp2896
S'y'
I13
sS'x'
I22
sg7
g9
sg25
g202
sg35
Nsbag2
(g3
g4
NtRp2897
(dp2898
S'y'
I13
sS'x'
I23
sg7
g9
sg25
g26
sg35
Nsbag2
(g3
g4
NtRp2899
(dp2900
S'y'
I13
sS'x'
I24
sg7
g9
sg25
g202
sg35
Nsbag2
(g3
g4
NtRp2901
(dp2902
S'y'
I13
sS'x'
I25
sg7
g9
sg25
g371
sg35
Nsbag2
(g3
g4
NtRp2903
(dp2904
S'y'
I13
sS'x'
I26
sg7
g9
sg25
g202
sg35
Nsbag2
(g3
g4
NtRp2905
(dp2906
S'y'
I13
sS'x'
I27
sg7
g9
sg25
g202
sg35
Nsbag2
(g3
g4
NtRp2907
(dp2908
S'y'
I13
sS'x'
I28
sg7
g9
sg25
g371
sg35
Nsbag2
(g3
g4
NtRp2909
(dp2910
S'y'
I13
sS'x'
I29
sg7
g9
sg25
g371
sg35
Nsbag2
(g3
g4
NtRp2911
(dp2912
S'y'
I13
sS'x'
I30
sg7
g9
sg25
g371
sg35
Nsbag2
(g3
g4
NtRp2913
(dp2914
S'y'
I13
sS'x'
I31
sg7
g9
sg25
g371
sg35
Nsbag2
(g3
g4
NtRp2915
(dp2916
S'y'
I13
sS'x'
I32
sg7
g9
sg25
g371
sg35
Nsbag2
(g3
g4
NtRp2917
(dp2918
S'y'
I13
sS'x'
I33
sg7
g9
sg25
g371
sg35
Nsbag2
(g3
g4
NtRp2919
(dp2920
S'y'
I13
sS'x'
I34
sg7
g9
sg25
g371
sg35
Nsbag2
(g3
g4
NtRp2921
(dp2922
S'y'
I13
sS'x'
I35
sg7
g9
sg25
g371
sg35
Nsbag2
(g3
g4
NtRp2923
(dp2924
S'y'
I13
sS'x'
I36
sg7
g9
sg25
g371
sg35
Nsbag2
(g3
g4
NtRp2925
(dp2926
S'y'
I13
sS'x'
I37
sg7
g9
sg25
g371
sg35
Nsbag2
(g3
g4
NtRp2927
(dp2928
S'y'
I13
sS'x'
I38
sg7
g9
sg25
g202
sg35
Nsbag2
(g3
g4
NtRp2929
(dp2930
S'y'
I13
sS'x'
I39
sg7
g9
sg25
g202
sg35
Nsbag2
(g3
g4
NtRp2931
(dp2932
S'y'
I13
sS'x'
I40
sg7
g9
sg25
g202
sg35
Nsbag2
(g3
g4
NtRp2933
(dp2934
S'y'
I13
sS'x'
I41
sg7
g9
sg25
g202
sg35
Nsbag2
(g3
g4
NtRp2935
(dp2936
S'y'
I13
sS'x'
I42
sg7
g9
sg25
g202
sg35
Nsbag2
(g3
g4
NtRp2937
(dp2938
S'y'
I13
sS'x'
I43
sg7
g9
sg25
g202
sg35
Nsbag2
(g3
g4
NtRp2939
(dp2940
S'y'
I13
sS'x'
I44
sg7
g9
sg25
g202
sg35
Nsbag2
(g3
g4
NtRp2941
(dp2942
S'y'
I13
sS'x'
I45
sg7
g9
sg25
g371
sg35
Nsbag2
(g3
g4
NtRp2943
(dp2944
S'y'
I13
sS'x'
I46
sg7
g9
sg25
g202
sg35
Nsbag2
(g3
g4
NtRp2945
(dp2946
S'y'
I13
sS'x'
I47
sg7
g9
sg25
g202
sg35
Nsbag2
(g3
g4
NtRp2947
(dp2948
S'y'
I13
sS'x'
I48
sg7
g9
sg25
g202
sg35
Nsbag2
(g3
g4
NtRp2949
(dp2950
S'y'
I13
sS'x'
I49
sg7
g9
sg25
g202
sg35
Nsbag2
(g3
g4
NtRp2951
(dp2952
S'y'
I13
sS'x'
I50
sg7
g9
sg25
g202
sg35
Nsbag2
(g3
g4
NtRp2953
(dp2954
S'y'
I13
sS'x'
I51
sg7
g9
sg25
g202
sg35
Nsbag2
(g3
g4
NtRp2955
(dp2956
S'y'
I13
sS'x'
I52
sg7
g9
sg25
g202
sg35
Nsbag564
ag2
(g3
g4
NtRp2957
(dp2958
S'y'
I13
sS'x'
I54
sg7
g9
sg25
g202
sg35
Nsbag2
(g3
g4
NtRp2959
(dp2960
S'y'
I13
sS'x'
I55
sg7
g9
sg25
g371
sg35
Nsbag2
(g3
g4
NtRp2961
(dp2962
S'y'
I13
sS'x'
I56
sg7
g9
sg25
g202
sg35
Nsbag2
(g3
g4
NtRp2963
(dp2964
S'y'
I13
sS'x'
I57
sg7
g9
sg25
g26
sg35
Nsbag2
(g3
g4
NtRp2965
(dp2966
S'y'
I13
sS'x'
I58
sg7
g9
sg25
g26
sg35
Nsbag2
(g3
g4
NtRp2967
(dp2968
S'y'
I13
sS'x'
I59
sg7
g9
sg25
g26
sg35
Nsbag2
(g3
g4
NtRp2969
(dp2970
S'y'
I13
sS'x'
I60
sg7
g9
sg25
g202
sg35
Nsbag940
ag2
(g3
g4
NtRp2971
(dp2972
S'y'
I13
sS'x'
I62
sg7
g9
sg25
g371
sg35
Nsbag668
ag2
(g3
g4
NtRp2973
(dp2974
S'y'
I13
sS'x'
I64
sg7
g9
sg25
g371
sg35
Nsbag2
(g3
g4
NtRp2975
(dp2976
S'y'
I13
sS'x'
I65
sg7
g9
sg25
g371
sg35
Nsbag2
(g3
g4
NtRp2977
(dp2978
S'y'
I13
sS'x'
I66
sg7
g9
sg25
g371
sg35
Nsbag2
(g3
g4
NtRp2979
(dp2980
S'y'
I13
sS'x'
I67
sg7
g9
sg25
g371
sg35
Nsbag2
(g3
g4
NtRp2981
(dp2982
S'y'
I13
sS'x'
I68
sg7
g9
sg25
g202
sg35
Nsbag2
(g3
g4
NtRp2983
(dp2984
S'y'
I13
sS'x'
I69
sg7
g9
sg25
g371
sg35
Nsbag2
(g3
g4
NtRp2985
(dp2986
S'y'
I13
sS'x'
I70
sg7
g9
sg25
g371
sg35
Nsbag515
ag2
(g3
g4
NtRp2987
(dp2988
S'y'
I13
sS'x'
I72
sg7
g9
sg25
g371
sg35
Nsbag2
(g3
g4
NtRp2989
(dp2990
S'y'
I13
sS'x'
I73
sg7
g9
sg25
g371
sg35
Nsbag2
(g3
g4
NtRp2991
(dp2992
S'y'
I13
sS'x'
I74
sg7
g9
sg25
g371
sg35
Nsbag2
(g3
g4
NtRp2993
(dp2994
S'y'
I13
sS'x'
I75
sg7
g9
sg25
g371
sg35
Nsbag2
(g3
g4
NtRp2995
(dp2996
S'y'
I13
sS'x'
I76
sg7
g9
sg25
g371
sg35
Nsbag2
(g3
g4
NtRp2997
(dp2998
S'y'
I13
sS'x'
I77
sg7
g9
sg25
g202
sg35
Nsbag2
(g3
g4
NtRp2999
(dp3000
S'y'
I13
sS'x'
I78
sg7
g9
sg25
g26
sg35
Nsbag2
(g3
g4
NtRp3001
(dp3002
S'y'
I13
sS'x'
I79
sg7
g9
sg25
g26
sg35
Nsbag2
(g3
g4
NtRp3003
(dp3004
S'y'
I14
sS'x'
I0
sg7
g9
sg25
g202
sg35
Nsbag2
(g3
g4
NtRp3005
(dp3006
S'y'
I14
sS'x'
I1
sg7
g9
sg25
g371
sg35
Nsbag2
(g3
g4
NtRp3007
(dp3008
S'y'
I14
sS'x'
I2
sg7
g9
sg25
g371
sg35
Nsbag2
(g3
g4
NtRp3009
(dp3010
S'y'
I14
sS'x'
I3
sg7
g9
sg25
g371
sg35
Nsbag2
(g3
g4
NtRp3011
(dp3012
S'y'
I14
sS'x'
I4
sg7
g9
sg25
g371
sg35
Nsbag2
(g3
g4
NtRp3013
(dp3014
S'y'
I14
sS'x'
I5
sg7
g9
sg25
g371
sg35
Nsbag2
(g3
g4
NtRp3015
(dp3016
S'y'
I14
sS'x'
I6
sg7
g9
sg25
g371
sg35
Nsbag2
(g3
g4
NtRp3017
(dp3018
S'y'
I14
sS'x'
I7
sg7
g9
sg25
g371
sg35
Nsbag2
(g3
g4
NtRp3019
(dp3020
S'y'
I14
sS'x'
I8
sg7
g9
sg25
g371
sg35
Nsbag2
(g3
g4
NtRp3021
(dp3022
S'y'
I14
sS'x'
I9
sg7
g9
sg25
g371
sg35
Nsbag2
(g3
g4
NtRp3023
(dp3024
S'y'
I14
sS'x'
I10
sg7
g9
sg25
g371
sg35
Nsbag2
(g3
g4
NtRp3025
(dp3026
S'y'
I14
sS'x'
I11
sg7
g9
sg25
g371
sg35
Nsbag2
(g3
g4
NtRp3027
(dp3028
S'y'
I14
sS'x'
I12
sg7
g9
sg25
g371
sg35
Nsbag2
(g3
g4
NtRp3029
(dp3030
S'y'
I14
sS'x'
I13
sg7
g9
sg25
g371
sg35
Nsbag2
(g3
g4
NtRp3031
(dp3032
S'y'
I14
sS'x'
I14
sg7
g9
sg25
g202
sg35
Nsbag2
(g3
g4
NtRp3033
(dp3034
S'y'
I14
sS'x'
I15
sg7
g9
sg25
g26
sg35
Nsbag2
(g3
g4
NtRp3035
(dp3036
S'y'
I14
sS'x'
I16
sg7
g9
sg25
g202
sg35
Nsbag2
(g3
g4
NtRp3037
(dp3038
S'y'
I14
sS'x'
I17
sg7
g9
sg25
g371
sg35
Nsbag2
(g3
g4
NtRp3039
(dp3040
S'y'
I14
sS'x'
I18
sg7
g9
sg25
g202
sg35
Nsbag2
(g3
g4
NtRp3041
(dp3042
S'y'
I14
sS'x'
I19
sg7
g9
sg25
g26
sg35
Nsbag2
(g3
g4
NtRp3043
(dp3044
S'y'
I14
sS'x'
I20
sg7
g9
sg25
g202
sg35
Nsbag2
(g3
g4
NtRp3045
(dp3046
S'y'
I14
sS'x'
I21
sg7
g9
sg25
g371
sg35
Nsbag2
(g3
g4
NtRp3047
(dp3048
S'y'
I14
sS'x'
I22
sg7
g9
sg25
g202
sg35
Nsbag2
(g3
g4
NtRp3049
(dp3050
S'y'
I14
sS'x'
I23
sg7
g9
sg25
g26
sg35
Nsbag2
(g3
g4
NtRp3051
(dp3052
S'y'
I14
sS'x'
I24
sg7
g9
sg25
g202
sg35
Nsbag1252
ag2
(g3
g4
NtRp3053
(dp3054
S'y'
I14
sS'x'
I26
sg7
g9
sg25
g202
sg35
Nsbag2
(g3
g4
NtRp3055
(dp3056
S'y'
I14
sS'x'
I27
sg7
g9
sg25
g202
sg35
Nsbag2
(g3
g4
NtRp3057
(dp3058
S'y'
I14
sS'x'
I28
sg7
g9
sg25
g371
sg35
Nsbag2
(g3
g4
NtRp3059
(dp3060
S'y'
I14
sS'x'
I29
sg7
g9
sg25
g371
sg35
Nsbag2
(g3
g4
NtRp3061
(dp3062
S'y'
I14
sS'x'
I30
sg7
g9
sg25
g371
sg35
Nsbag2
(g3
g4
NtRp3063
(dp3064
S'y'
I14
sS'x'
I31
sg7
g9
sg25
g371
sg35
Nsbag2
(g3
g4
NtRp3065
(dp3066
S'y'
I14
sS'x'
I32
sg7
g9
sg25
g371
sg35
Nsbag2
(g3
g4
NtRp3067
(dp3068
S'y'
I14
sS'x'
I33
sg7
g9
sg25
g371
sg35
Nsbag2
(g3
g4
NtRp3069
(dp3070
S'y'
I14
sS'x'
I34
sg7
g9
sg25
g371
sg35
Nsbag2
(g3
g4
NtRp3071
(dp3072
S'y'
I14
sS'x'
I35
sg7
g9
sg25
g371
sg35
Nsbag2
(g3
g4
NtRp3073
(dp3074
S'y'
I14
sS'x'
I36
sg7
g9
sg25
g371
sg35
Nsbag2
(g3
g4
NtRp3075
(dp3076
S'y'
I14
sS'x'
I37
sg7
g9
sg25
g371
sg35
Nsbag2
(g3
g4
NtRp3077
(dp3078
S'y'
I14
sS'x'
I38
sg7
g9
sg25
g371
sg35
Nsbag2
(g3
g4
NtRp3079
(dp3080
S'y'
I14
sS'x'
I39
sg7
g9
sg25
g371
sg35
Nsbag2
(g3
g4
NtRp3081
(dp3082
S'y'
I14
sS'x'
I40
sg7
g9
sg25
g371
sg35
Nsbag2
(g3
g4
NtRp3083
(dp3084
S'y'
I14
sS'x'
I41
sg7
g9
sg25
g371
sg35
Nsbag2
(g3
g4
NtRp3085
(dp3086
S'y'
I14
sS'x'
I42
sg7
g9
sg25
g371
sg35
Nsbag2
(g3
g4
NtRp3087
(dp3088
S'y'
I14
sS'x'
I43
sg7
g9
sg25
g371
sg35
Nsbag996
ag2
(g3
g4
NtRp3089
(dp3090
S'y'
I14
sS'x'
I45
sg7
g9
sg25
g371
sg35
Nsbag2
(g3
g4
NtRp3091
(dp3092
S'y'
I14
sS'x'
I46
sg7
g9
sg25
g371
sg35
Nsbag2
(g3
g4
NtRp3093
(dp3094
S'y'
I14
sS'x'
I47
sg7
g9
sg25
g371
sg35
Nsbag2
(g3
g4
NtRp3095
(dp3096
S'y'
I14
sS'x'
I48
sg7
g9
sg25
g371
sg35
Nsbag2
(g3
g4
NtRp3097
(dp3098
S'y'
I14
sS'x'
I49
sg7
g9
sg25
g371
sg35
Nsbag2
(g3
g4
NtRp3099
(dp3100
S'y'
I14
sS'x'
I50
sg7
g9
sg25
g371
sg35
Nsbag2
(g3
g4
NtRp3101
(dp3102
S'y'
I14
sS'x'
I51
sg7
g9
sg25
g202
sg35
Nsbag2
(g3
g4
NtRp3103
(dp3104
S'y'
I14
sS'x'
I52
sg7
g9
sg25
g202
sg35
Nsbag2
(g3
g4
NtRp3105
(dp3106
S'y'
I14
sS'x'
I53
sg7
g9
sg25
g371
sg35
Nsbag2
(g3
g4
NtRp3107
(dp3108
S'y'
I14
sS'x'
I54
sg7
g9
sg25
g202
sg35
Nsbag2
(g3
g4
NtRp3109
(dp3110
S'y'
I14
sS'x'
I55
sg7
g9
sg25
g371
sg35
Nsbag2
(g3
g4
NtRp3111
(dp3112
S'y'
I14
sS'x'
I56
sg7
g9
sg25
g202
sg35
Nsbag2
(g3
g4
NtRp3113
(dp3114
S'y'
I14
sS'x'
I57
sg7
g9
sg25
g26
sg35
Nsbag2
(g3
g4
NtRp3115
(dp3116
S'y'
I14
sS'x'
I58
sg7
g9
sg25
g26
sg35
Nsbag2
(g3
g4
NtRp3117
(dp3118
S'y'
I14
sS'x'
I59
sg7
g9
sg25
g26
sg35
Nsbag2
(g3
g4
NtRp3119
(dp3120
S'y'
I14
sS'x'
I60
sg7
g9
sg25
g202
sg35
Nsbag580
ag1012
ag2
(g3
g4
NtRp3121
(dp3122
S'y'
I14
sS'x'
I63
sg7
g9
sg25
g371
sg35
Nsbag2
(g3
g4
NtRp3123
(dp3124
S'y'
I14
sS'x'
I64
sg7
g9
sg25
g371
sg35
Nsbag449
ag2
(g3
g4
NtRp3125
(dp3126
S'y'
I14
sS'x'
I66
sg7
g9
sg25
g371
sg35
Nsbag2
(g3
g4
NtRp3127
(dp3128
S'y'
I14
sS'x'
I67
sg7
g9
sg25
g371
sg35
Nsbag2
(g3
g4
NtRp3129
(dp3130
S'y'
I14
sS'x'
I68
sg7
g9
sg25
g371
sg35
Nsbag2
(g3
g4
NtRp3131
(dp3132
S'y'
I14
sS'x'
I69
sg7
g9
sg25
g371
sg35
Nsbag2
(g3
g4
NtRp3133
(dp3134
S'y'
I14
sS'x'
I70
sg7
g9
sg25
g371
sg35
Nsbag2
(g3
g4
NtRp3135
(dp3136
S'y'
I14
sS'x'
I71
sg7
g9
sg25
g371
sg35
Nsbag2
(g3
g4
NtRp3137
(dp3138
S'y'
I14
sS'x'
I72
sg7
g9
sg25
g371
sg35
Nsbag2
(g3
g4
NtRp3139
(dp3140
S'y'
I14
sS'x'
I73
sg7
g9
sg25
g371
sg35
Nsbag2
(g3
g4
NtRp3141
(dp3142
S'y'
I14
sS'x'
I74
sg7
g9
sg25
g371
sg35
Nsbag2
(g3
g4
NtRp3143
(dp3144
S'y'
I14
sS'x'
I75
sg7
g9
sg25
g371
sg35
Nsbag2
(g3
g4
NtRp3145
(dp3146
S'y'
I14
sS'x'
I76
sg7
g9
sg25
g371
sg35
Nsbag2
(g3
g4
NtRp3147
(dp3148
S'y'
I14
sS'x'
I77
sg7
g9
sg25
g202
sg35
Nsbag2
(g3
g4
NtRp3149
(dp3150
S'y'
I14
sS'x'
I78
sg7
g9
sg25
g26
sg35
Nsbag2
(g3
g4
NtRp3151
(dp3152
S'y'
I14
sS'x'
I79
sg7
g9
sg25
g26
sg35
Nsbag2
(g3
g4
NtRp3153
(dp3154
S'y'
I15
sS'x'
I0
sg7
g9
sg25
g202
sg35
Nsbag2
(g3
g4
NtRp3155
(dp3156
S'y'
I15
sS'x'
I1
sg7
g9
sg25
g371
sg35
Nsbag2
(g3
g4
NtRp3157
(dp3158
S'y'
I15
sS'x'
I2
sg7
g9
sg25
g371
sg35
Nsbag2
(g3
g4
NtRp3159
(dp3160
S'y'
I15
sS'x'
I3
sg7
g9
sg25
g371
sg35
Nsbag2
(g3
g4
NtRp3161
(dp3162
S'y'
I15
sS'x'
I4
sg7
g9
sg25
g371
sg35
Nsbag2
(g3
g4
NtRp3163
(dp3164
S'y'
I15
sS'x'
I5
sg7
g9
sg25
g371
sg35
Nsbag2
(g3
g4
NtRp3165
(dp3166
S'y'
I15
sS'x'
I6
sg7
g9
sg25
g371
sg35
Nsbag2
(g3
g4
NtRp3167
(dp3168
S'y'
I15
sS'x'
I7
sg7
g9
sg25
g202
sg35
Nsbag2
(g3
g4
NtRp3169
(dp3170
S'y'
I15
sS'x'
I8
sg7
g9
sg25
g371
sg35
Nsbag2
(g3
g4
NtRp3171
(dp3172
S'y'
I15
sS'x'
I9
sg7
g9
sg25
g371
sg35
Nsbag2
(g3
g4
NtRp3173
(dp3174
S'y'
I15
sS'x'
I10
sg7
g9
sg25
g371
sg35
Nsbag2
(g3
g4
NtRp3175
(dp3176
S'y'
I15
sS'x'
I11
sg7
g9
sg25
g371
sg35
Nsbag2
(g3
g4
NtRp3177
(dp3178
S'y'
I15
sS'x'
I12
sg7
g9
sg25
g371
sg35
Nsbag2
(g3
g4
NtRp3179
(dp3180
S'y'
I15
sS'x'
I13
sg7
g9
sg25
g371
sg35
Nsbag2
(g3
g4
NtRp3181
(dp3182
S'y'
I15
sS'x'
I14
sg7
g9
sg25
g202
sg35
Nsbag2
(g3
g4
NtRp3183
(dp3184
S'y'
I15
sS'x'
I15
sg7
g9
sg25
g26
sg35
Nsbag2
(g3
g4
NtRp3185
(dp3186
S'y'
I15
sS'x'
I16
sg7
g9
sg25
g202
sg35
Nsbag2
(g3
g4
NtRp3187
(dp3188
S'y'
I15
sS'x'
I17
sg7
g9
sg25
g371
sg35
Nsbag2
(g3
g4
NtRp3189
(dp3190
S'y'
I15
sS'x'
I18
sg7
g9
sg25
g202
sg35
Nsbag2
(g3
g4
NtRp3191
(dp3192
S'y'
I15
sS'x'
I19
sg7
g9
sg25
g26
sg35
Nsbag2
(g3
g4
NtRp3193
(dp3194
S'y'
I15
sS'x'
I20
sg7
g9
sg25
g202
sg35
Nsbag2
(g3
g4
NtRp3195
(dp3196
S'y'
I15
sS'x'
I21
sg7
g9
sg25
g371
sg35
Nsbag2
(g3
g4
NtRp3197
(dp3198
S'y'
I15
sS'x'
I22
sg7
g9
sg25
g202
sg35
Nsbag2
(g3
g4
NtRp3199
(dp3200
S'y'
I15
sS'x'
I23
sg7
g9
sg25
g26
sg35
Nsbag2
(g3
g4
NtRp3201
(dp3202
S'y'
I15
sS'x'
I24
sg7
g9
sg25
g202
sg35
Nsbag2
(g3
g4
NtRp3203
(dp3204
S'y'
I15
sS'x'
I25
sg7
g9
sg25
g371
sg35
Nsbag2
(g3
g4
NtRp3205
(dp3206
S'y'
I15
sS'x'
I26
sg7
g9
sg25
g202
sg35
Nsbag2
(g3
g4
NtRp3207
(dp3208
S'y'
I15
sS'x'
I27
sg7
g9
sg25
g202
sg35
Nsbag2
(g3
g4
NtRp3209
(dp3210
S'y'
I15
sS'x'
I28
sg7
g9
sg25
g202
sg35
Nsbag2
(g3
g4
NtRp3211
(dp3212
S'y'
I15
sS'x'
I29
sg7
g9
sg25
g202
sg35
Nsbag2
(g3
g4
NtRp3213
(dp3214
S'y'
I15
sS'x'
I30
sg7
g9
sg25
g202
sg35
Nsbag2
(g3
g4
NtRp3215
(dp3216
S'y'
I15
sS'x'
I31
sg7
g9
sg25
g202
sg35
Nsbag2
(g3
g4
NtRp3217
(dp3218
S'y'
I15
sS'x'
I32
sg7
g9
sg25
g202
sg35
Nsbag2
(g3
g4
NtRp3219
(dp3220
S'y'
I15
sS'x'
I33
sg7
g9
sg25
g202
sg35
Nsbag2
(g3
g4
NtRp3221
(dp3222
S'y'
I15
sS'x'
I34
sg7
g9
sg25
g202
sg35
Nsbag2
(g3
g4
NtRp3223
(dp3224
S'y'
I15
sS'x'
I35
sg7
g9
sg25
g202
sg35
Nsbag2
(g3
g4
NtRp3225
(dp3226
S'y'
I15
sS'x'
I36
sg7
g9
sg25
g202
sg35
Nsbag2
(g3
g4
NtRp3227
(dp3228
S'y'
I15
sS'x'
I37
sg7
g9
sg25
g202
sg35
Nsbag2
(g3
g4
NtRp3229
(dp3230
S'y'
I15
sS'x'
I38
sg7
g9
sg25
g202
sg35
Nsbag2
(g3
g4
NtRp3231
(dp3232
S'y'
I15
sS'x'
I39
sg7
g9
sg25
g202
sg35
Nsbag2
(g3
g4
NtRp3233
(dp3234
S'y'
I15
sS'x'
I40
sg7
g9
sg25
g202
sg35
Nsbag2
(g3
g4
NtRp3235
(dp3236
S'y'
I15
sS'x'
I41
sg7
g9
sg25
g202
sg35
Nsbag2
(g3
g4
NtRp3237
(dp3238
S'y'
I15
sS'x'
I42
sg7
g9
sg25
g202
sg35
Nsbag2
(g3
g4
NtRp3239
(dp3240
S'y'
I15
sS'x'
I43
sg7
g9
sg25
g202
sg35
Nsbag2
(g3
g4
NtRp3241
(dp3242
S'y'
I15
sS'x'
I44
sg7
g9
sg25
g202
sg35
Nsbag2
(g3
g4
NtRp3243
(dp3244
S'y'
I15
sS'x'
I45
sg7
g9
sg25
g371
sg35
Nsbag2
(g3
g4
NtRp3245
(dp3246
S'y'
I15
sS'x'
I46
sg7
g9
sg25
g202
sg35
Nsbag2
(g3
g4
NtRp3247
(dp3248
S'y'
I15
sS'x'
I47
sg7
g9
sg25
g202
sg35
Nsbag2
(g3
g4
NtRp3249
(dp3250
S'y'
I15
sS'x'
I48
sg7
g9
sg25
g202
sg35
Nsbag2
(g3
g4
NtRp3251
(dp3252
S'y'
I15
sS'x'
I49
sg7
g9
sg25
g202
sg35
Nsbag2
(g3
g4
NtRp3253
(dp3254
S'y'
I15
sS'x'
I50
sg7
g9
sg25
g202
sg35
Nsbag2
(g3
g4
NtRp3255
(dp3256
S'y'
I15
sS'x'
I51
sg7
g9
sg25
g202
sg35
Nsbag2
(g3
g4
NtRp3257
(dp3258
S'y'
I15
sS'x'
I52
sg7
g9
sg25
g202
sg35
Nsbag604
ag2
(g3
g4
NtRp3259
(dp3260
S'y'
I15
sS'x'
I54
sg7
g9
sg25
g202
sg35
Nsbag2
(g3
g4
NtRp3261
(dp3262
S'y'
I15
sS'x'
I55
sg7
g9
sg25
g371
sg35
Nsbag2
(g3
g4
NtRp3263
(dp3264
S'y'
I15
sS'x'
I56
sg7
g9
sg25
g202
sg35
Nsbag2
(g3
g4
NtRp3265
(dp3266
S'y'
I15
sS'x'
I57
sg7
g9
sg25
g26
sg35
Nsbag2
(g3
g4
NtRp3267
(dp3268
S'y'
I15
sS'x'
I58
sg7
g9
sg25
g26
sg35
Nsbag2
(g3
g4
NtRp3269
(dp3270
S'y'
I15
sS'x'
I59
sg7
g9
sg25
g26
sg35
Nsbag2
(g3
g4
NtRp3271
(dp3272
S'y'
I15
sS'x'
I60
sg7
g9
sg25
g202
sg35
Nsbag2
(g3
g4
NtRp3273
(dp3274
S'y'
I15
sS'x'
I61
sg7
g9
sg25
g371
sg35
Nsbag2
(g3
g4
NtRp3275
(dp3276
S'y'
I15
sS'x'
I62
sg7
g9
sg25
g371
sg35
Nsbag2
(g3
g4
NtRp3277
(dp3278
S'y'
I15
sS'x'
I63
sg7
g9
sg25
g371
sg35
Nsbag2
(g3
g4
NtRp3279
(dp3280
S'y'
I15
sS'x'
I64
sg7
g9
sg25
g371
sg35
Nsbag2
(g3
g4
NtRp3281
(dp3282
S'y'
I15
sS'x'
I65
sg7
g9
sg25
g371
sg35
Nsbag2
(g3
g4
NtRp3283
(dp3284
S'y'
I15
sS'x'
I66
sg7
g9
sg25
g371
sg35
Nsbag2
(g3
g4
NtRp3285
(dp3286
S'y'
I15
sS'x'
I67
sg7
g9
sg25
g371
sg35
Nsbag2
(g3
g4
NtRp3287
(dp3288
S'y'
I15
sS'x'
I68
sg7
g9
sg25
g202
sg35
Nsbag2
(g3
g4
NtRp3289
(dp3290
S'y'
I15
sS'x'
I69
sg7
g9
sg25
g371
sg35
Nsbag2
(g3
g4
NtRp3291
(dp3292
S'y'
I15
sS'x'
I70
sg7
g9
sg25
g371
sg35
Nsbag2
(g3
g4
NtRp3293
(dp3294
S'y'
I15
sS'x'
I71
sg7
g9
sg25
g371
sg35
Nsbag2
(g3
g4
NtRp3295
(dp3296
S'y'
I15
sS'x'
I72
sg7
g9
sg25
g371
sg35
Nsbag2
(g3
g4
NtRp3297
(dp3298
S'y'
I15
sS'x'
I73
sg7
g9
sg25
g371
sg35
Nsbag459
ag2
(g3
g4
NtRp3299
(dp3300
S'y'
I15
sS'x'
I75
sg7
g9
sg25
g371
sg35
Nsbag2
(g3
g4
NtRp3301
(dp3302
S'y'
I15
sS'x'
I76
sg7
g9
sg25
g371
sg35
Nsbag2
(g3
g4
NtRp3303
(dp3304
S'y'
I15
sS'x'
I77
sg7
g9
sg25
g202
sg35
Nsbag2
(g3
g4
NtRp3305
(dp3306
S'y'
I15
sS'x'
I78
sg7
g9
sg25
g26
sg35
Nsbag2
(g3
g4
NtRp3307
(dp3308
S'y'
I15
sS'x'
I79
sg7
g9
sg25
g26
sg35
Nsbag2
(g3
g4
NtRp3309
(dp3310
S'y'
I16
sS'x'
I0
sg7
g9
sg25
g202
sg35
Nsbag2
(g3
g4
NtRp3311
(dp3312
S'y'
I16
sS'x'
I1
sg7
g9
sg25
g202
sg35
Nsbag2
(g3
g4
NtRp3313
(dp3314
S'y'
I16
sS'x'
I2
sg7
g9
sg25
g202
sg35
Nsbag2
(g3
g4
NtRp3315
(dp3316
S'y'
I16
sS'x'
I3
sg7
g9
sg25
g202
sg35
Nsbag2
(g3
g4
NtRp3317
(dp3318
S'y'
I16
sS'x'
I4
sg7
g9
sg25
g202
sg35
Nsbag2
(g3
g4
NtRp3319
(dp3320
S'y'
I16
sS'x'
I5
sg7
g9
sg25
g202
sg35
Nsbag2
(g3
g4
NtRp3321
(dp3322
S'y'
I16
sS'x'
I6
sg7
g9
sg25
g202
sg35
Nsbag2
(g3
g4
NtRp3323
(dp3324
S'y'
I16
sS'x'
I7
sg7
g9
sg25
g202
sg35
Nsbag2
(g3
g4
NtRp3325
(dp3326
S'y'
I16
sS'x'
I8
sg7
g9
sg25
g202
sg35
Nsbag2
(g3
g4
NtRp3327
(dp3328
S'y'
I16
sS'x'
I9
sg7
g9
sg25
g202
sg35
Nsbag2
(g3
g4
NtRp3329
(dp3330
S'y'
I16
sS'x'
I10
sg7
g9
sg25
g202
sg35
Nsbag2
(g3
g4
NtRp3331
(dp3332
S'y'
I16
sS'x'
I11
sg7
g9
sg25
g202
sg35
Nsbag2
(g3
g4
NtRp3333
(dp3334
S'y'
I16
sS'x'
I12
sg7
g9
sg25
g202
sg35
Nsbag2
(g3
g4
NtRp3335
(dp3336
S'y'
I16
sS'x'
I13
sg7
g9
sg25
g202
sg35
Nsbag2
(g3
g4
NtRp3337
(dp3338
S'y'
I16
sS'x'
I14
sg7
g9
sg25
g202
sg35
Nsbag2
(g3
g4
NtRp3339
(dp3340
S'y'
I16
sS'x'
I15
sg7
g9
sg25
g26
sg35
Nsbag2
(g3
g4
NtRp3341
(dp3342
S'y'
I16
sS'x'
I16
sg7
g9
sg25
g202
sg35
Nsbag2
(g3
g4
NtRp3343
(dp3344
S'y'
I16
sS'x'
I17
sg7
g9
sg25
g371
sg35
Nsbag2
(g3
g4
NtRp3345
(dp3346
S'y'
I16
sS'x'
I18
sg7
g9
sg25
g202
sg35
Nsbag2
(g3
g4
NtRp3347
(dp3348
S'y'
I16
sS'x'
I19
sg7
g9
sg25
g26
sg35
Nsbag2
(g3
g4
NtRp3349
(dp3350
S'y'
I16
sS'x'
I20
sg7
g9
sg25
g202
sg35
Nsbag2
(g3
g4
NtRp3351
(dp3352
S'y'
I16
sS'x'
I21
sg7
g9
sg25
g371
sg35
Nsbag2
(g3
g4
NtRp3353
(dp3354
S'y'
I16
sS'x'
I22
sg7
g9
sg25
g202
sg35
Nsbag2
(g3
g4
NtRp3355
(dp3356
S'y'
I16
sS'x'
I23
sg7
g9
sg25
g26
sg35
Nsbag2
(g3
g4
NtRp3357
(dp3358
S'y'
I16
sS'x'
I24
sg7
g9
sg25
g202
sg35
Nsbag2
(g3
g4
NtRp3359
(dp3360
S'y'
I16
sS'x'
I25
sg7
g9
sg25
g371
sg35
Nsbag2
(g3
g4
NtRp3361
(dp3362
S'y'
I16
sS'x'
I26
sg7
g9
sg25
g371
sg35
Nsbag2
(g3
g4
NtRp3363
(dp3364
S'y'
I16
sS'x'
I27
sg7
g9
sg25
g371
sg35
Nsbag2
(g3
g4
NtRp3365
(dp3366
S'y'
I16
sS'x'
I28
sg7
g9
sg25
g371
sg35
Nsbag2
(g3
g4
NtRp3367
(dp3368
S'y'
I16
sS'x'
I29
sg7
g9
sg25
g371
sg35
Nsbag2
(g3
g4
NtRp3369
(dp3370
S'y'
I16
sS'x'
I30
sg7
g9
sg25
g371
sg35
Nsbag2
(g3
g4
NtRp3371
(dp3372
S'y'
I16
sS'x'
I31
sg7
g9
sg25
g371
sg35
Nsbag2
(g3
g4
NtRp3373
(dp3374
S'y'
I16
sS'x'
I32
sg7
g9
sg25
g371
sg35
Nsbag2
(g3
g4
NtRp3375
(dp3376
S'y'
I16
sS'x'
I33
sg7
g9
sg25
g371
sg35
Nsbag2
(g3
g4
NtRp3377
(dp3378
S'y'
I16
sS'x'
I34
sg7
g9
sg25
g371
sg35
Nsbag2
(g3
g4
NtRp3379
(dp3380
S'y'
I16
sS'x'
I35
sg7
g9
sg25
g371
sg35
Nsbag2
(g3
g4
NtRp3381
(dp3382
S'y'
I16
sS'x'
I36
sg7
g9
sg25
g202
sg35
Nsbag2
(g3
g4
NtRp3383
(dp3384
S'y'
I16
sS'x'
I37
sg7
g9
sg25
g26
sg35
Nsbag2
(g3
g4
NtRp3385
(dp3386
S'y'
I16
sS'x'
I38
sg7
g9
sg25
g26
sg35
Nsbag2
(g3
g4
NtRp3387
(dp3388
S'y'
I16
sS'x'
I39
sg7
g9
sg25
g26
sg35
Nsbag2
(g3
g4
NtRp3389
(dp3390
S'y'
I16
sS'x'
I40
sg7
g9
sg25
g26
sg35
Nsbag2
(g3
g4
NtRp3391
(dp3392
S'y'
I16
sS'x'
I41
sg7
g9
sg25
g202
sg35
Nsbag644
ag2
(g3
g4
NtRp3393
(dp3394
S'y'
I16
sS'x'
I43
sg7
g9
sg25
g371
sg35
Nsbag2
(g3
g4
NtRp3395
(dp3396
S'y'
I16
sS'x'
I44
sg7
g9
sg25
g371
sg35
Nsbag652
ag2
(g3
g4
NtRp3397
(dp3398
S'y'
I16
sS'x'
I46
sg7
g9
sg25
g371
sg35
Nsbag2
(g3
g4
NtRp3399
(dp3400
S'y'
I16
sS'x'
I47
sg7
g9
sg25
g371
sg35
Nsbag2
(g3
g4
NtRp3401
(dp3402
S'y'
I16
sS'x'
I48
sg7
g9
sg25
g371
sg35
Nsbag2
(g3
g4
NtRp3403
(dp3404
S'y'
I16
sS'x'
I49
sg7
g9
sg25
g371
sg35
Nsbag2
(g3
g4
NtRp3405
(dp3406
S'y'
I16
sS'x'
I50
sg7
g9
sg25
g371
sg35
Nsbag2
(g3
g4
NtRp3407
(dp3408
S'y'
I16
sS'x'
I51
sg7
g9
sg25
g371
sg35
Nsbag2
(g3
g4
NtRp3409
(dp3410
S'y'
I16
sS'x'
I52
sg7
g9
sg25
g202
sg35
Nsbag2
(g3
g4
NtRp3411
(dp3412
S'y'
I16
sS'x'
I53
sg7
g9
sg25
g202
sg35
Nsbag2
(g3
g4
NtRp3413
(dp3414
S'y'
I16
sS'x'
I54
sg7
g9
sg25
g202
sg35
Nsbag2
(g3
g4
NtRp3415
(dp3416
S'y'
I16
sS'x'
I55
sg7
g9
sg25
g371
sg35
Nsbag2
(g3
g4
NtRp3417
(dp3418
S'y'
I16
sS'x'
I56
sg7
g9
sg25
g202
sg35
Nsbag2
(g3
g4
NtRp3419
(dp3420
S'y'
I16
sS'x'
I57
sg7
g9
sg25
g26
sg35
Nsbag2
(g3
g4
NtRp3421
(dp3422
S'y'
I16
sS'x'
I58
sg7
g9
sg25
g26
sg35
Nsbag2
(g3
g4
NtRp3423
(dp3424
S'y'
I16
sS'x'
I59
sg7
g9
sg25
g26
sg35
Nsbag2
(g3
g4
NtRp3425
(dp3426
S'y'
I16
sS'x'
I60
sg7
g9
sg25
g202
sg35
Nsbag1140
ag2
(g3
g4
NtRp3427
(dp3428
S'y'
I16
sS'x'
I62
sg7
g9
sg25
g371
sg35
Nsbag2
(g3
g4
NtRp3429
(dp3430
S'y'
I16
sS'x'
I63
sg7
g9
sg25
g371
sg35
Nsbag2
(g3
g4
NtRp3431
(dp3432
S'y'
I16
sS'x'
I64
sg7
g9
sg25
g371
sg35
Nsbag2
(g3
g4
NtRp3433
(dp3434
S'y'
I16
sS'x'
I65
sg7
g9
sg25
g371
sg35
Nsbag2
(g3
g4
NtRp3435
(dp3436
S'y'
I16
sS'x'
I66
sg7
g9
sg25
g371
sg35
Nsbag2
(g3
g4
NtRp3437
(dp3438
S'y'
I16
sS'x'
I67
sg7
g9
sg25
g371
sg35
Nsbag2
(g3
g4
NtRp3439
(dp3440
S'y'
I16
sS'x'
I68
sg7
g9
sg25
g202
sg35
Nsbag2
(g3
g4
NtRp3441
(dp3442
S'y'
I16
sS'x'
I69
sg7
g9
sg25
g371
sg35
Nsbag2
(g3
g4
NtRp3443
(dp3444
S'y'
I16
sS'x'
I70
sg7
g9
sg25
g371
sg35
Nsbag2
(g3
g4
NtRp3445
(dp3446
S'y'
I16
sS'x'
I71
sg7
g9
sg25
g371
sg35
Nsbag2
(g3
g4
NtRp3447
(dp3448
S'y'
I16
sS'x'
I72
sg7
g9
sg25
g371
sg35
Nsbag2
(g3
g4
NtRp3449
(dp3450
S'y'
I16
sS'x'
I73
sg7
g9
sg25
g371
sg35
Nsbag2
(g3
g4
NtRp3451
(dp3452
S'y'
I16
sS'x'
I74
sg7
g9
sg25
g371
sg35
Nsbag2
(g3
g4
NtRp3453
(dp3454
S'y'
I16
sS'x'
I75
sg7
g9
sg25
g371
sg35
Nsbag2
(g3
g4
NtRp3455
(dp3456
S'y'
I16
sS'x'
I76
sg7
g9
sg25
g371
sg35
Nsbag2
(g3
g4
NtRp3457
(dp3458
S'y'
I16
sS'x'
I77
sg7
g9
sg25
g202
sg35
Nsbag2
(g3
g4
NtRp3459
(dp3460
S'y'
I16
sS'x'
I78
sg7
g9
sg25
g26
sg35
Nsbag2
(g3
g4
NtRp3461
(dp3462
S'y'
I16
sS'x'
I79
sg7
g9
sg25
g26
sg35
Nsbag2
(g3
g4
NtRp3463
(dp3464
S'y'
I17
sS'x'
I0
sg7
g9
sg25
g26
sg35
Nsbag2
(g3
g4
NtRp3465
(dp3466
S'y'
I17
sS'x'
I1
sg7
g9
sg25
g26
sg35
Nsbag2
(g3
g4
NtRp3467
(dp3468
S'y'
I17
sS'x'
I2
sg7
g9
sg25
g26
sg35
Nsbag2
(g3
g4
NtRp3469
(dp3470
S'y'
I17
sS'x'
I3
sg7
g9
sg25
g26
sg35
Nsbag2
(g3
g4
NtRp3471
(dp3472
S'y'
I17
sS'x'
I4
sg7
g9
sg25
g26
sg35
Nsbag2
(g3
g4
NtRp3473
(dp3474
S'y'
I17
sS'x'
I5
sg7
g9
sg25
g26
sg35
Nsbag2
(g3
g4
NtRp3475
(dp3476
S'y'
I17
sS'x'
I6
sg7
g9
sg25
g26
sg35
Nsbag2
(g3
g4
NtRp3477
(dp3478
S'y'
I17
sS'x'
I7
sg7
g9
sg25
g202
sg35
Nsbag2
(g3
g4
NtRp3479
(dp3480
S'y'
I17
sS'x'
I8
sg7
g9
sg25
g202
sg35
Nsbag2
(g3
g4
NtRp3481
(dp3482
S'y'
I17
sS'x'
I9
sg7
g9
sg25
g202
sg35
Nsbag2
(g3
g4
NtRp3483
(dp3484
S'y'
I17
sS'x'
I10
sg7
g9
sg25
g202
sg35
Nsbag2
(g3
g4
NtRp3485
(dp3486
S'y'
I17
sS'x'
I11
sg7
g9
sg25
g202
sg35
Nsbag2
(g3
g4
NtRp3487
(dp3488
S'y'
I17
sS'x'
I12
sg7
g9
sg25
g202
sg35
Nsbag2
(g3
g4
NtRp3489
(dp3490
S'y'
I17
sS'x'
I13
sg7
g9
sg25
g202
sg35
Nsbag2
(g3
g4
NtRp3491
(dp3492
S'y'
I17
sS'x'
I14
sg7
g9
sg25
g202
sg35
Nsbag2
(g3
g4
NtRp3493
(dp3494
S'y'
I17
sS'x'
I15
sg7
g9
sg25
g202
sg35
Nsbag2
(g3
g4
NtRp3495
(dp3496
S'y'
I17
sS'x'
I16
sg7
g9
sg25
g202
sg35
Nsbag2
(g3
g4
NtRp3497
(dp3498
S'y'
I17
sS'x'
I17
sg7
g9
sg25
g371
sg35
Nsbag2
(g3
g4
NtRp3499
(dp3500
S'y'
I17
sS'x'
I18
sg7
g9
sg25
g202
sg35
Nsbag2
(g3
g4
NtRp3501
(dp3502
S'y'
I17
sS'x'
I19
sg7
g9
sg25
g26
sg35
Nsbag2
(g3
g4
NtRp3503
(dp3504
S'y'
I17
sS'x'
I20
sg7
g9
sg25
g202
sg35
Nsbag2
(g3
g4
NtRp3505
(dp3506
S'y'
I17
sS'x'
I21
sg7
g9
sg25
g371
sg35
Nsbag2
(g3
g4
NtRp3507
(dp3508
S'y'
I17
sS'x'
I22
sg7
g9
sg25
g202
sg35
Nsbag2
(g3
g4
NtRp3509
(dp3510
S'y'
I17
sS'x'
I23
sg7
g9
sg25
g26
sg35
Nsbag2
(g3
g4
NtRp3511
(dp3512
S'y'
I17
sS'x'
I24
sg7
g9
sg25
g202
sg35
Nsbag2
(g3
g4
NtRp3513
(dp3514
S'y'
I17
sS'x'
I25
sg7
g9
sg25
g371
sg35
Nsbag2
(g3
g4
NtRp3515
(dp3516
S'y'
I17
sS'x'
I26
sg7
g9
sg25
g202
sg35
Nsbag2
(g3
g4
NtRp3517
(dp3518
S'y'
I17
sS'x'
I27
sg7
g9
sg25
g202
sg35
Nsbag2
(g3
g4
NtRp3519
(dp3520
S'y'
I17
sS'x'
I28
sg7
g9
sg25
g202
sg35
Nsbag2
(g3
g4
NtRp3521
(dp3522
S'y'
I17
sS'x'
I29
sg7
g9
sg25
g202
sg35
Nsbag2
(g3
g4
NtRp3523
(dp3524
S'y'
I17
sS'x'
I30
sg7
g9
sg25
g202
sg35
Nsbag2
(g3
g4
NtRp3525
(dp3526
S'y'
I17
sS'x'
I31
sg7
g9
sg25
g202
sg35
Nsbag2
(g3
g4
NtRp3527
(dp3528
S'y'
I17
sS'x'
I32
sg7
g9
sg25
g202
sg35
Nsbag2
(g3
g4
NtRp3529
(dp3530
S'y'
I17
sS'x'
I33
sg7
g9
sg25
g202
sg35
Nsbag2
(g3
g4
NtRp3531
(dp3532
S'y'
I17
sS'x'
I34
sg7
g9
sg25
g202
sg35
Nsbag2
(g3
g4
NtRp3533
(dp3534
S'y'
I17
sS'x'
I35
sg7
g9
sg25
g202
sg35
Nsbag2
(g3
g4
NtRp3535
(dp3536
S'y'
I17
sS'x'
I36
sg7
g9
sg25
g202
sg35
Nsbag2
(g3
g4
NtRp3537
(dp3538
S'y'
I17
sS'x'
I37
sg7
g9
sg25
g26
sg35
Nsbag2
(g3
g4
NtRp3539
(dp3540
S'y'
I17
sS'x'
I38
sg7
g9
sg25
g26
sg35
Nsbag2
(g3
g4
NtRp3541
(dp3542
S'y'
I17
sS'x'
I39
sg7
g9
sg25
g26
sg35
Nsbag2
(g3
g4
NtRp3543
(dp3544
S'y'
I17
sS'x'
I40
sg7
g9
sg25
g26
sg35
Nsbag2
(g3
g4
NtRp3545
(dp3546
S'y'
I17
sS'x'
I41
sg7
g9
sg25
g202
sg35
Nsbag1052
ag2
(g3
g4
NtRp3547
(dp3548
S'y'
I17
sS'x'
I43
sg7
g9
sg25
g371
sg35
Nsbag2
(g3
g4
NtRp3549
(dp3550
S'y'
I17
sS'x'
I44
sg7
g9
sg25
g371
sg35
Nsbag2
(g3
g4
NtRp3551
(dp3552
S'y'
I17
sS'x'
I45
sg7
g9
sg25
g371
sg35
Nsbag2
(g3
g4
NtRp3553
(dp3554
S'y'
I17
sS'x'
I46
sg7
g9
sg25
g371
sg35
Nsbag2
(g3
g4
NtRp3555
(dp3556
S'y'
I17
sS'x'
I47
sg7
g9
sg25
g371
sg35
Nsbag2
(g3
g4
NtRp3557
(dp3558
S'y'
I17
sS'x'
I48
sg7
g9
sg25
g371
sg35
Nsbag2
(g3
g4
NtRp3559
(dp3560
S'y'
I17
sS'x'
I49
sg7
g9
sg25
g371
sg35
Nsbag2
(g3
g4
NtRp3561
(dp3562
S'y'
I17
sS'x'
I50
sg7
g9
sg25
g371
sg35
Nsbag2
(g3
g4
NtRp3563
(dp3564
S'y'
I17
sS'x'
I51
sg7
g9
sg25
g371
sg35
Nsbag2
(g3
g4
NtRp3565
(dp3566
S'y'
I17
sS'x'
I52
sg7
g9
sg25
g202
sg35
Nsbag2
(g3
g4
NtRp3567
(dp3568
S'y'
I17
sS'x'
I53
sg7
g9
sg25
g26
sg35
Nsbag2
(g3
g4
NtRp3569
(dp3570
S'y'
I17
sS'x'
I54
sg7
g9
sg25
g202
sg35
Nsbag2
(g3
g4
NtRp3571
(dp3572
S'y'
I17
sS'x'
I55
sg7
g9
sg25
g202
sg35
Nsbag2
(g3
g4
NtRp3573
(dp3574
S'y'
I17
sS'x'
I56
sg7
g9
sg25
g202
sg35
Nsbag2
(g3
g4
NtRp3575
(dp3576
S'y'
I17
sS'x'
I57
sg7
g9
sg25
g26
sg35
Nsbag2
(g3
g4
NtRp3577
(dp3578
S'y'
I17
sS'x'
I58
sg7
g9
sg25
g26
sg35
Nsbag2
(g3
g4
NtRp3579
(dp3580
S'y'
I17
sS'x'
I59
sg7
g9
sg25
g26
sg35
Nsbag2
(g3
g4
NtRp3581
(dp3582
S'y'
I17
sS'x'
I60
sg7
g9
sg25
g202
sg35
Nsbag2
(g3
g4
NtRp3583
(dp3584
S'y'
I17
sS'x'
I61
sg7
g9
sg25
g202
sg35
Nsbag2
(g3
g4
NtRp3585
(dp3586
S'y'
I17
sS'x'
I62
sg7
g9
sg25
g202
sg35
Nsbag2
(g3
g4
NtRp3587
(dp3588
S'y'
I17
sS'x'
I63
sg7
g9
sg25
g202
sg35
Nsbag2
(g3
g4
NtRp3589
(dp3590
S'y'
I17
sS'x'
I64
sg7
g9
sg25
g202
sg35
Nsbag2
(g3
g4
NtRp3591
(dp3592
S'y'
I17
sS'x'
I65
sg7
g9
sg25
g202
sg35
Nsbag2
(g3
g4
NtRp3593
(dp3594
S'y'
I17
sS'x'
I66
sg7
g9
sg25
g202
sg35
Nsbag2
(g3
g4
NtRp3595
(dp3596
S'y'
I17
sS'x'
I67
sg7
g9
sg25
g202
sg35
Nsbag2
(g3
g4
NtRp3597
(dp3598
S'y'
I17
sS'x'
I68
sg7
g9
sg25
g202
sg35
Nsbag2
(g3
g4
NtRp3599
(dp3600
S'y'
I17
sS'x'
I69
sg7
g9
sg25
g371
sg35
Nsbag2
(g3
g4
NtRp3601
(dp3602
S'y'
I17
sS'x'
I70
sg7
g9
sg25
g371
sg35
Nsbag2
(g3
g4
NtRp3603
(dp3604
S'y'
I17
sS'x'
I71
sg7
g9
sg25
g371
sg35
Nsbag2
(g3
g4
NtRp3605
(dp3606
S'y'
I17
sS'x'
I72
sg7
g9
sg25
g371
sg35
Nsbag2
(g3
g4
NtRp3607
(dp3608
S'y'
I17
sS'x'
I73
sg7
g9
sg25
g371
sg35
Nsbag2
(g3
g4
NtRp3609
(dp3610
S'y'
I17
sS'x'
I74
sg7
g9
sg25
g371
sg35
Nsbag2
(g3
g4
NtRp3611
(dp3612
S'y'
I17
sS'x'
I75
sg7
g9
sg25
g371
sg35
Nsbag2
(g3
g4
NtRp3613
(dp3614
S'y'
I17
sS'x'
I76
sg7
g9
sg25
g371
sg35
Nsbag2
(g3
g4
NtRp3615
(dp3616
S'y'
I17
sS'x'
I77
sg7
g9
sg25
g202
sg35
Nsbag2
(g3
g4
NtRp3617
(dp3618
S'y'
I17
sS'x'
I78
sg7
g9
sg25
g26
sg35
Nsbag2
(g3
g4
NtRp3619
(dp3620
S'y'
I17
sS'x'
I79
sg7
g9
sg25
g26
sg35
Nsbag2
(g3
g4
NtRp3621
(dp3622
S'y'
I18
sS'x'
I0
sg7
g9
sg25
g26
sg35
Nsbag2
(g3
g4
NtRp3623
(dp3624
S'y'
I18
sS'x'
I1
sg7
g9
sg25
g26
sg35
Nsbag2
(g3
g4
NtRp3625
(dp3626
S'y'
I18
sS'x'
I2
sg7
g9
sg25
g26
sg35
Nsbag2
(g3
g4
NtRp3627
(dp3628
S'y'
I18
sS'x'
I3
sg7
g9
sg25
g26
sg35
Nsbag2
(g3
g4
NtRp3629
(dp3630
S'y'
I18
sS'x'
I4
sg7
g9
sg25
g26
sg35
Nsbag2
(g3
g4
NtRp3631
(dp3632
S'y'
I18
sS'x'
I5
sg7
g9
sg25
g26
sg35
Nsbag2
(g3
g4
NtRp3633
(dp3634
S'y'
I18
sS'x'
I6
sg7
g9
sg25
g26
sg35
Nsbag2
(g3
g4
NtRp3635
(dp3636
S'y'
I18
sS'x'
I7
sg7
g9
sg25
g202
sg35
Nsbag2
(g3
g4
NtRp3637
(dp3638
S'y'
I18
sS'x'
I8
sg7
g9
sg25
g371
sg35
Nsbag2
(g3
g4
NtRp3639
(dp3640
S'y'
I18
sS'x'
I9
sg7
g9
sg25
g371
sg35
Nsbag2
(g3
g4
NtRp3641
(dp3642
S'y'
I18
sS'x'
I10
sg7
g9
sg25
g371
sg35
Nsbag2
(g3
g4
NtRp3643
(dp3644
S'y'
I18
sS'x'
I11
sg7
g9
sg25
g371
sg35
Nsbag2
(g3
g4
NtRp3645
(dp3646
S'y'
I18
sS'x'
I12
sg7
g9
sg25
g371
sg35
Nsbag2
(g3
g4
NtRp3647
(dp3648
S'y'
I18
sS'x'
I13
sg7
g9
sg25
g371
sg35
Nsbag2
(g3
g4
NtRp3649
(dp3650
S'y'
I18
sS'x'
I14
sg7
g9
sg25
g371
sg35
Nsbag1236
ag2
(g3
g4
NtRp3651
(dp3652
S'y'
I18
sS'x'
I16
sg7
g9
sg25
g371
sg35
Nsbag2
(g3
g4
NtRp3653
(dp3654
S'y'
I18
sS'x'
I17
sg7
g9
sg25
g371
sg35
Nsbag2
(g3
g4
NtRp3655
(dp3656
S'y'
I18
sS'x'
I18
sg7
g9
sg25
g202
sg35
Nsbag2
(g3
g4
NtRp3657
(dp3658
S'y'
I18
sS'x'
I19
sg7
g9
sg25
g26
sg35
Nsbag2
(g3
g4
NtRp3659
(dp3660
S'y'
I18
sS'x'
I20
sg7
g9
sg25
g202
sg35
Nsbag2
(g3
g4
NtRp3661
(dp3662
S'y'
I18
sS'x'
I21
sg7
g9
sg25
g371
sg35
Nsbag2
(g3
g4
NtRp3663
(dp3664
S'y'
I18
sS'x'
I22
sg7
g9
sg25
g202
sg35
Nsbag2
(g3
g4
NtRp3665
(dp3666
S'y'
I18
sS'x'
I23
sg7
g9
sg25
g26
sg35
Nsbag2
(g3
g4
NtRp3667
(dp3668
S'y'
I18
sS'x'
I24
sg7
g9
sg25
g202
sg35
Nsbag2
(g3
g4
NtRp3669
(dp3670
S'y'
I18
sS'x'
I25
sg7
g9
sg25
g371
sg35
Nsbag2
(g3
g4
NtRp3671
(dp3672
S'y'
I18
sS'x'
I26
sg7
g9
sg25
g371
sg35
Nsbag2
(g3
g4
NtRp3673
(dp3674
S'y'
I18
sS'x'
I27
sg7
g9
sg25
g371
sg35
Nsbag2
(g3
g4
NtRp3675
(dp3676
S'y'
I18
sS'x'
I28
sg7
g9
sg25
g371
sg35
Nsbag2
(g3
g4
NtRp3677
(dp3678
S'y'
I18
sS'x'
I29
sg7
g9
sg25
g371
sg35
Nsbag2
(g3
g4
NtRp3679
(dp3680
S'y'
I18
sS'x'
I30
sg7
g9
sg25
g371
sg35
Nsbag2
(g3
g4
NtRp3681
(dp3682
S'y'
I18
sS'x'
I31
sg7
g9
sg25
g371
sg35
Nsbag2
(g3
g4
NtRp3683
(dp3684
S'y'
I18
sS'x'
I32
sg7
g9
sg25
g371
sg35
Nsbag2
(g3
g4
NtRp3685
(dp3686
S'y'
I18
sS'x'
I33
sg7
g9
sg25
g371
sg35
Nsbag2
(g3
g4
NtRp3687
(dp3688
S'y'
I18
sS'x'
I34
sg7
g9
sg25
g202
sg35
Nsbag2
(g3
g4
NtRp3689
(dp3690
S'y'
I18
sS'x'
I35
sg7
g9
sg25
g26
sg35
Nsbag2
(g3
g4
NtRp3691
(dp3692
S'y'
I18
sS'x'
I36
sg7
g9
sg25
g26
sg35
Nsbag2
(g3
g4
NtRp3693
(dp3694
S'y'
I18
sS'x'
I37
sg7
g9
sg25
g26
sg35
Nsbag2
(g3
g4
NtRp3695
(dp3696
S'y'
I18
sS'x'
I38
sg7
g9
sg25
g26
sg35
Nsbag2
(g3
g4
NtRp3697
(dp3698
S'y'
I18
sS'x'
I39
sg7
g9
sg25
g26
sg35
Nsbag2
(g3
g4
NtRp3699
(dp3700
S'y'
I18
sS'x'
I40
sg7
g9
sg25
g26
sg35
Nsbag2
(g3
g4
NtRp3701
(dp3702
S'y'
I18
sS'x'
I41
sg7
g9
sg25
g202
sg35
Nsbag1044
ag2
(g3
g4
NtRp3703
(dp3704
S'y'
I18
sS'x'
I43
sg7
g9
sg25
g371
sg35
Nsbag2
(g3
g4
NtRp3705
(dp3706
S'y'
I18
sS'x'
I44
sg7
g9
sg25
g371
sg35
Nsbag2
(g3
g4
NtRp3707
(dp3708
S'y'
I18
sS'x'
I45
sg7
g9
sg25
g371
sg35
Nsbag2
(g3
g4
NtRp3709
(dp3710
S'y'
I18
sS'x'
I46
sg7
g9
sg25
g371
sg35
Nsbag2
(g3
g4
NtRp3711
(dp3712
S'y'
I18
sS'x'
I47
sg7
g9
sg25
g371
sg35
Nsbag2
(g3
g4
NtRp3713
(dp3714
S'y'
I18
sS'x'
I48
sg7
g9
sg25
g371
sg35
Nsbag2
(g3
g4
NtRp3715
(dp3716
S'y'
I18
sS'x'
I49
sg7
g9
sg25
g371
sg35
Nsbag2
(g3
g4
NtRp3717
(dp3718
S'y'
I18
sS'x'
I50
sg7
g9
sg25
g371
sg35
Nsbag2
(g3
g4
NtRp3719
(dp3720
S'y'
I18
sS'x'
I51
sg7
g9
sg25
g371
sg35
Nsbag2
(g3
g4
NtRp3721
(dp3722
S'y'
I18
sS'x'
I52
sg7
g9
sg25
g202
sg35
Nsbag2
(g3
g4
NtRp3723
(dp3724
S'y'
I18
sS'x'
I53
sg7
g9
sg25
g26
sg35
Nsbag2
(g3
g4
NtRp3725
(dp3726
S'y'
I18
sS'x'
I54
sg7
g9
sg25
g26
sg35
Nsbag2
(g3
g4
NtRp3727
(dp3728
S'y'
I18
sS'x'
I55
sg7
g9
sg25
g26
sg35
Nsbag2
(g3
g4
NtRp3729
(dp3730
S'y'
I18
sS'x'
I56
sg7
g9
sg25
g26
sg35
Nsbag2
(g3
g4
NtRp3731
(dp3732
S'y'
I18
sS'x'
I57
sg7
g9
sg25
g26
sg35
Nsbag2
(g3
g4
NtRp3733
(dp3734
S'y'
I18
sS'x'
I58
sg7
g9
sg25
g26
sg35
Nsbag2
(g3
g4
NtRp3735
(dp3736
S'y'
I18
sS'x'
I59
sg7
g9
sg25
g26
sg35
Nsbag2
(g3
g4
NtRp3737
(dp3738
S'y'
I18
sS'x'
I60
sg7
g9
sg25
g26
sg35
Nsbag2
(g3
g4
NtRp3739
(dp3740
S'y'
I18
sS'x'
I61
sg7
g9
sg25
g26
sg35
Nsbag2
(g3
g4
NtRp3741
(dp3742
S'y'
I18
sS'x'
I62
sg7
g9
sg25
g26
sg35
Nsbag2
(g3
g4
NtRp3743
(dp3744
S'y'
I18
sS'x'
I63
sg7
g9
sg25
g26
sg35
Nsbag2
(g3
g4
NtRp3745
(dp3746
S'y'
I18
sS'x'
I64
sg7
g9
sg25
g26
sg35
Nsbag2
(g3
g4
NtRp3747
(dp3748
S'y'
I18
sS'x'
I65
sg7
g9
sg25
g26
sg35
Nsbag2
(g3
g4
NtRp3749
(dp3750
S'y'
I18
sS'x'
I66
sg7
g9
sg25
g26
sg35
Nsbag2
(g3
g4
NtRp3751
(dp3752
S'y'
I18
sS'x'
I67
sg7
g9
sg25
g26
sg35
Nsbag2
(g3
g4
NtRp3753
(dp3754
S'y'
I18
sS'x'
I68
sg7
g9
sg25
g202
sg35
Nsbag2
(g3
g4
NtRp3755
(dp3756
S'y'
I18
sS'x'
I69
sg7
g9
sg25
g202
sg35
Nsbag2
(g3
g4
NtRp3757
(dp3758
S'y'
I18
sS'x'
I70
sg7
g9
sg25
g202
sg35
Nsbag2
(g3
g4
NtRp3759
(dp3760
S'y'
I18
sS'x'
I71
sg7
g9
sg25
g202
sg35
Nsbag2
(g3
g4
NtRp3761
(dp3762
S'y'
I18
sS'x'
I72
sg7
g9
sg25
g202
sg35
Nsbag2
(g3
g4
NtRp3763
(dp3764
S'y'
I18
sS'x'
I73
sg7
g9
sg25
g202
sg35
Nsbag2
(g3
g4
NtRp3765
(dp3766
S'y'
I18
sS'x'
I74
sg7
g9
sg25
g202
sg35
Nsbag2
(g3
g4
NtRp3767
(dp3768
S'y'
I18
sS'x'
I75
sg7
g9
sg25
g202
sg35
Nsbag2
(g3
g4
NtRp3769
(dp3770
S'y'
I18
sS'x'
I76
sg7
g9
sg25
g202
sg35
Nsbag2
(g3
g4
NtRp3771
(dp3772
S'y'
I18
sS'x'
I77
sg7
g9
sg25
g202
sg35
Nsbag2
(g3
g4
NtRp3773
(dp3774
S'y'
I18
sS'x'
I78
sg7
g9
sg25
g26
sg35
Nsbag2
(g3
g4
NtRp3775
(dp3776
S'y'
I18
sS'x'
I79
sg7
g9
sg25
g26
sg35
Nsbag2
(g3
g4
NtRp3777
(dp3778
S'y'
I19
sS'x'
I0
sg7
g9
sg25
g26
sg35
Nsbag2
(g3
g4
NtRp3779
(dp3780
S'y'
I19
sS'x'
I1
sg7
g9
sg25
g26
sg35
Nsbag2
(g3
g4
NtRp3781
(dp3782
S'y'
I19
sS'x'
I2
sg7
g9
sg25
g26
sg35
Nsbag2
(g3
g4
NtRp3783
(dp3784
S'y'
I19
sS'x'
I3
sg7
g9
sg25
g26
sg35
Nsbag2
(g3
g4
NtRp3785
(dp3786
S'y'
I19
sS'x'
I4
sg7
g9
sg25
g26
sg35
Nsbag2
(g3
g4
NtRp3787
(dp3788
S'y'
I19
sS'x'
I5
sg7
g9
sg25
g26
sg35
Nsbag2
(g3
g4
NtRp3789
(dp3790
S'y'
I19
sS'x'
I6
sg7
g9
sg25
g26
sg35
Nsbag2
(g3
g4
NtRp3791
(dp3792
S'y'
I19
sS'x'
I7
sg7
g9
sg25
g202
sg35
Nsbag2
(g3
g4
NtRp3793
(dp3794
S'y'
I19
sS'x'
I8
sg7
g9
sg25
g202
sg35
Nsbag2
(g3
g4
NtRp3795
(dp3796
S'y'
I19
sS'x'
I9
sg7
g9
sg25
g202
sg35
Nsbag2
(g3
g4
NtRp3797
(dp3798
S'y'
I19
sS'x'
I10
sg7
g9
sg25
g202
sg35
Nsbag2
(g3
g4
NtRp3799
(dp3800
S'y'
I19
sS'x'
I11
sg7
g9
sg25
g202
sg35
Nsbag2
(g3
g4
NtRp3801
(dp3802
S'y'
I19
sS'x'
I12
sg7
g9
sg25
g202
sg35
Nsbag2
(g3
g4
NtRp3803
(dp3804
S'y'
I19
sS'x'
I13
sg7
g9
sg25
g202
sg35
Nsbag2
(g3
g4
NtRp3805
(dp3806
S'y'
I19
sS'x'
I14
sg7
g9
sg25
g202
sg35
Nsbag2
(g3
g4
NtRp3807
(dp3808
S'y'
I19
sS'x'
I15
sg7
g9
sg25
g202
sg35
Nsbag2
(g3
g4
NtRp3809
(dp3810
S'y'
I19
sS'x'
I16
sg7
g9
sg25
g202
sg35
Nsbag2
(g3
g4
NtRp3811
(dp3812
S'y'
I19
sS'x'
I17
sg7
g9
sg25
g202
sg35
Nsbag2
(g3
g4
NtRp3813
(dp3814
S'y'
I19
sS'x'
I18
sg7
g9
sg25
g202
sg35
Nsbag2
(g3
g4
NtRp3815
(dp3816
S'y'
I19
sS'x'
I19
sg7
g9
sg25
g26
sg35
Nsbag2
(g3
g4
NtRp3817
(dp3818
S'y'
I19
sS'x'
I20
sg7
g9
sg25
g202
sg35
Nsbag2
(g3
g4
NtRp3819
(dp3820
S'y'
I19
sS'x'
I21
sg7
g9
sg25
g202
sg35
Nsbag2
(g3
g4
NtRp3821
(dp3822
S'y'
I19
sS'x'
I22
sg7
g9
sg25
g202
sg35
Nsbag2
(g3
g4
NtRp3823
(dp3824
S'y'
I19
sS'x'
I23
sg7
g9
sg25
g26
sg35
Nsbag2
(g3
g4
NtRp3825
(dp3826
S'y'
I19
sS'x'
I24
sg7
g9
sg25
g202
sg35
Nsbag2
(g3
g4
NtRp3827
(dp3828
S'y'
I19
sS'x'
I25
sg7
g9
sg25
g202
sg35
Nsbag2
(g3
g4
NtRp3829
(dp3830
S'y'
I19
sS'x'
I26
sg7
g9
sg25
g202
sg35
Nsbag2
(g3
g4
NtRp3831
(dp3832
S'y'
I19
sS'x'
I27
sg7
g9
sg25
g202
sg35
Nsbag2
(g3
g4
NtRp3833
(dp3834
S'y'
I19
sS'x'
I28
sg7
g9
sg25
g202
sg35
Nsbag2
(g3
g4
NtRp3835
(dp3836
S'y'
I19
sS'x'
I29
sg7
g9
sg25
g202
sg35
Nsbag2
(g3
g4
NtRp3837
(dp3838
S'y'
I19
sS'x'
I30
sg7
g9
sg25
g202
sg35
Nsbag2
(g3
g4
NtRp3839
(dp3840
S'y'
I19
sS'x'
I31
sg7
g9
sg25
g202
sg35
Nsbag2
(g3
g4
NtRp3841
(dp3842
S'y'
I19
sS'x'
I32
sg7
g9
sg25
g202
sg35
Nsbag2
(g3
g4
NtRp3843
(dp3844
S'y'
I19
sS'x'
I33
sg7
g9
sg25
g202
sg35
Nsbag2
(g3
g4
NtRp3845
(dp3846
S'y'
I19
sS'x'
I34
sg7
g9
sg25
g202
sg35
Nsbag2
(g3
g4
NtRp3847
(dp3848
S'y'
I19
sS'x'
I35
sg7
g9
sg25
g26
sg35
Nsbag2
(g3
g4
NtRp3849
(dp3850
S'y'
I19
sS'x'
I36
sg7
g9
sg25
g26
sg35
Nsbag2
(g3
g4
NtRp3851
(dp3852
S'y'
I19
sS'x'
I37
sg7
g9
sg25
g26
sg35
Nsbag2
(g3
g4
NtRp3853
(dp3854
S'y'
I19
sS'x'
I38
sg7
g9
sg25
g26
sg35
Nsbag2
(g3
g4
NtRp3855
(dp3856
S'y'
I19
sS'x'
I39
sg7
g9
sg25
g26
sg35
Nsbag2
(g3
g4
NtRp3857
(dp3858
S'y'
I19
sS'x'
I40
sg7
g9
sg25
g26
sg35
Nsbag2
(g3
g4
NtRp3859
(dp3860
S'y'
I19
sS'x'
I41
sg7
g9
sg25
g202
sg35
Nsbag2
(g3
g4
NtRp3861
(dp3862
S'y'
I19
sS'x'
I42
sg7
g9
sg25
g202
sg35
Nsbag2
(g3
g4
NtRp3863
(dp3864
S'y'
I19
sS'x'
I43
sg7
g9
sg25
g202
sg35
Nsbag2
(g3
g4
NtRp3865
(dp3866
S'y'
I19
sS'x'
I44
sg7
g9
sg25
g202
sg35
Nsbag2
(g3
g4
NtRp3867
(dp3868
S'y'
I19
sS'x'
I45
sg7
g9
sg25
g202
sg35
Nsbag2
(g3
g4
NtRp3869
(dp3870
S'y'
I19
sS'x'
I46
sg7
g9
sg25
g202
sg35
Nsbag2
(g3
g4
NtRp3871
(dp3872
S'y'
I19
sS'x'
I47
sg7
g9
sg25
g202
sg35
Nsbag2
(g3
g4
NtRp3873
(dp3874
S'y'
I19
sS'x'
I48
sg7
g9
sg25
g202
sg35
Nsbag2
(g3
g4
NtRp3875
(dp3876
S'y'
I19
sS'x'
I49
sg7
g9
sg25
g202
sg35
Nsbag2
(g3
g4
NtRp3877
(dp3878
S'y'
I19
sS'x'
I50
sg7
g9
sg25
g202
sg35
Nsbag2
(g3
g4
NtRp3879
(dp3880
S'y'
I19
sS'x'
I51
sg7
g9
sg25
g202
sg35
Nsbag2
(g3
g4
NtRp3881
(dp3882
S'y'
I19
sS'x'
I52
sg7
g9
sg25
g202
sg35
Nsbag2
(g3
g4
NtRp3883
(dp3884
S'y'
I19
sS'x'
I53
sg7
g9
sg25
g26
sg35
Nsbag2
(g3
g4
NtRp3885
(dp3886
S'y'
I19
sS'x'
I54
sg7
g9
sg25
g26
sg35
Nsbag2
(g3
g4
NtRp3887
(dp3888
S'y'
I19
sS'x'
I55
sg7
g9
sg25
g26
sg35
Nsbag2
(g3
g4
NtRp3889
(dp3890
S'y'
I19
sS'x'
I56
sg7
g9
sg25
g26
sg35
Nsbag2
(g3
g4
NtRp3891
(dp3892
S'y'
I19
sS'x'
I57
sg7
g9
sg25
g26
sg35
Nsbag2
(g3
g4
NtRp3893
(dp3894
S'y'
I19
sS'x'
I58
sg7
g9
sg25
g26
sg35
Nsbag2
(g3
g4
NtRp3895
(dp3896
S'y'
I19
sS'x'
I59
sg7
g9
sg25
g26
sg35
Nsbag2
(g3
g4
NtRp3897
(dp3898
S'y'
I19
sS'x'
I60
sg7
g9
sg25
g26
sg35
Nsbag2
(g3
g4
NtRp3899
(dp3900
S'y'
I19
sS'x'
I61
sg7
g9
sg25
g26
sg35
Nsbag2
(g3
g4
NtRp3901
(dp3902
S'y'
I19
sS'x'
I62
sg7
g9
sg25
g26
sg35
Nsbag2
(g3
g4
NtRp3903
(dp3904
S'y'
I19
sS'x'
I63
sg7
g9
sg25
g26
sg35
Nsbag2
(g3
g4
NtRp3905
(dp3906
S'y'
I19
sS'x'
I64
sg7
g9
sg25
g26
sg35
Nsbag2
(g3
g4
NtRp3907
(dp3908
S'y'
I19
sS'x'
I65
sg7
g9
sg25
g26
sg35
Nsbag2
(g3
g4
NtRp3909
(dp3910
S'y'
I19
sS'x'
I66
sg7
g9
sg25
g26
sg35
Nsbag2
(g3
g4
NtRp3911
(dp3912
S'y'
I19
sS'x'
I67
sg7
g9
sg25
g26
sg35
Nsbag2
(g3
g4
NtRp3913
(dp3914
S'y'
I19
sS'x'
I68
sg7
g9
sg25
g26
sg35
Nsbag2
(g3
g4
NtRp3915
(dp3916
S'y'
I19
sS'x'
I69
sg7
g9
sg25
g26
sg35
Nsbag2
(g3
g4
NtRp3917
(dp3918
S'y'
I19
sS'x'
I70
sg7
g9
sg25
g26
sg35
Nsbag2
(g3
g4
NtRp3919
(dp3920
S'y'
I19
sS'x'
I71
sg7
g9
sg25
g26
sg35
Nsbag2
(g3
g4
NtRp3921
(dp3922
S'y'
I19
sS'x'
I72
sg7
g9
sg25
g26
sg35
Nsbag2
(g3
g4
NtRp3923
(dp3924
S'y'
I19
sS'x'
I73
sg7
g9
sg25
g26
sg35
Nsbag2
(g3
g4
NtRp3925
(dp3926
S'y'
I19
sS'x'
I74
sg7
g9
sg25
g26
sg35
Nsbag2
(g3
g4
NtRp3927
(dp3928
S'y'
I19
sS'x'
I75
sg7
g9
sg25
g26
sg35
Nsbag2
(g3
g4
NtRp3929
(dp3930
S'y'
I19
sS'x'
I76
sg7
g9
sg25
g26
sg35
Nsbag2
(g3
g4
NtRp3931
(dp3932
S'y'
I19
sS'x'
I77
sg7
g9
sg25
g26
sg35
Nsbag2
(g3
g4
NtRp3933
(dp3934
S'y'
I19
sS'x'
I78
sg7
g9
sg25
g26
sg35
Nsbag2
(g3
g4
NtRp3935
(dp3936
S'y'
I19
sS'x'
I79
sg7
g9
sg25
g26
sg35
Nsbag2
(g3
g4
NtRp3937
(dp3938
S'y'
I20
sS'x'
I0
sg7
g9
sg25
g26
sg35
Nsbag2
(g3
g4
NtRp3939
(dp3940
S'y'
I20
sS'x'
I1
sg7
g9
sg25
g26
sg35
Nsbag2
(g3
g4
NtRp3941
(dp3942
S'y'
I20
sS'x'
I2
sg7
g9
sg25
g26
sg35
Nsbag2
(g3
g4
NtRp3943
(dp3944
S'y'
I20
sS'x'
I3
sg7
g9
sg25
g26
sg35
Nsbag2
(g3
g4
NtRp3945
(dp3946
S'y'
I20
sS'x'
I4
sg7
g9
sg25
g26
sg35
Nsbag2
(g3
g4
NtRp3947
(dp3948
S'y'
I20
sS'x'
I5
sg7
g9
sg25
g26
sg35
Nsbag2
(g3
g4
NtRp3949
(dp3950
S'y'
I20
sS'x'
I6
sg7
g9
sg25
g26
sg35
Nsbag2
(g3
g4
NtRp3951
(dp3952
S'y'
I20
sS'x'
I7
sg7
g9
sg25
g26
sg35
Nsbag2
(g3
g4
NtRp3953
(dp3954
S'y'
I20
sS'x'
I8
sg7
g9
sg25
g26
sg35
Nsbag2
(g3
g4
NtRp3955
(dp3956
S'y'
I20
sS'x'
I9
sg7
g9
sg25
g26
sg35
Nsbag2
(g3
g4
NtRp3957
(dp3958
S'y'
I20
sS'x'
I10
sg7
g9
sg25
g26
sg35
Nsbag2
(g3
g4
NtRp3959
(dp3960
S'y'
I20
sS'x'
I11
sg7
g9
sg25
g26
sg35
Nsbag2
(g3
g4
NtRp3961
(dp3962
S'y'
I20
sS'x'
I12
sg7
g9
sg25
g26
sg35
Nsbag2
(g3
g4
NtRp3963
(dp3964
S'y'
I20
sS'x'
I13
sg7
g9
sg25
g26
sg35
Nsbag2
(g3
g4
NtRp3965
(dp3966
S'y'
I20
sS'x'
I14
sg7
g9
sg25
g26
sg35
Nsbag2
(g3
g4
NtRp3967
(dp3968
S'y'
I20
sS'x'
I15
sg7
g9
sg25
g26
sg35
Nsbag2
(g3
g4
NtRp3969
(dp3970
S'y'
I20
sS'x'
I16
sg7
g9
sg25
g26
sg35
Nsbag2
(g3
g4
NtRp3971
(dp3972
S'y'
I20
sS'x'
I17
sg7
g9
sg25
g26
sg35
Nsbag2
(g3
g4
NtRp3973
(dp3974
S'y'
I20
sS'x'
I18
sg7
g9
sg25
g26
sg35
Nsbag2
(g3
g4
NtRp3975
(dp3976
S'y'
I20
sS'x'
I19
sg7
g9
sg25
g26
sg35
Nsbag2
(g3
g4
NtRp3977
(dp3978
S'y'
I20
sS'x'
I20
sg7
g9
sg25
g26
sg35
Nsbag2
(g3
g4
NtRp3979
(dp3980
S'y'
I20
sS'x'
I21
sg7
g9
sg25
g26
sg35
Nsbag2
(g3
g4
NtRp3981
(dp3982
S'y'
I20
sS'x'
I22
sg7
g9
sg25
g26
sg35
Nsbag2
(g3
g4
NtRp3983
(dp3984
S'y'
I20
sS'x'
I23
sg7
g9
sg25
g26
sg35
Nsbag2
(g3
g4
NtRp3985
(dp3986
S'y'
I20
sS'x'
I24
sg7
g9
sg25
g26
sg35
Nsbag2
(g3
g4
NtRp3987
(dp3988
S'y'
I20
sS'x'
I25
sg7
g9
sg25
g26
sg35
Nsbag2
(g3
g4
NtRp3989
(dp3990
S'y'
I20
sS'x'
I26
sg7
g9
sg25
g26
sg35
Nsbag2
(g3
g4
NtRp3991
(dp3992
S'y'
I20
sS'x'
I27
sg7
g9
sg25
g26
sg35
Nsbag2
(g3
g4
NtRp3993
(dp3994
S'y'
I20
sS'x'
I28
sg7
g9
sg25
g26
sg35
Nsbag2
(g3
g4
NtRp3995
(dp3996
S'y'
I20
sS'x'
I29
sg7
g9
sg25
g26
sg35
Nsbag2
(g3
g4
NtRp3997
(dp3998
S'y'
I20
sS'x'
I30
sg7
g9
sg25
g26
sg35
Nsbag2
(g3
g4
NtRp3999
(dp4000
S'y'
I20
sS'x'
I31
sg7
g9
sg25
g26
sg35
Nsbag2
(g3
g4
NtRp4001
(dp4002
S'y'
I20
sS'x'
I32
sg7
g9
sg25
g26
sg35
Nsbag2
(g3
g4
NtRp4003
(dp4004
S'y'
I20
sS'x'
I33
sg7
g9
sg25
g26
sg35
Nsbag2
(g3
g4
NtRp4005
(dp4006
S'y'
I20
sS'x'
I34
sg7
g9
sg25
g26
sg35
Nsbag2
(g3
g4
NtRp4007
(dp4008
S'y'
I20
sS'x'
I35
sg7
g9
sg25
g26
sg35
Nsbag2
(g3
g4
NtRp4009
(dp4010
S'y'
I20
sS'x'
I36
sg7
g9
sg25
g26
sg35
Nsbag2
(g3
g4
NtRp4011
(dp4012
S'y'
I20
sS'x'
I37
sg7
g9
sg25
g26
sg35
Nsbag2
(g3
g4
NtRp4013
(dp4014
S'y'
I20
sS'x'
I38
sg7
g9
sg25
g26
sg35
Nsbag2
(g3
g4
NtRp4015
(dp4016
S'y'
I20
sS'x'
I39
sg7
g9
sg25
g26
sg35
Nsbag2
(g3
g4
NtRp4017
(dp4018
S'y'
I20
sS'x'
I40
sg7
g9
sg25
g26
sg35
Nsbag2
(g3
g4
NtRp4019
(dp4020
S'y'
I20
sS'x'
I41
sg7
g9
sg25
g26
sg35
Nsbag2
(g3
g4
NtRp4021
(dp4022
S'y'
I20
sS'x'
I42
sg7
g9
sg25
g26
sg35
Nsbag2
(g3
g4
NtRp4023
(dp4024
S'y'
I20
sS'x'
I43
sg7
g9
sg25
g26
sg35
Nsbag2
(g3
g4
NtRp4025
(dp4026
S'y'
I20
sS'x'
I44
sg7
g9
sg25
g26
sg35
Nsbag2
(g3
g4
NtRp4027
(dp4028
S'y'
I20
sS'x'
I45
sg7
g9
sg25
g26
sg35
Nsbag2
(g3
g4
NtRp4029
(dp4030
S'y'
I20
sS'x'
I46
sg7
g9
sg25
g26
sg35
Nsbag2
(g3
g4
NtRp4031
(dp4032
S'y'
I20
sS'x'
I47
sg7
g9
sg25
g26
sg35
Nsbag2
(g3
g4
NtRp4033
(dp4034
S'y'
I20
sS'x'
I48
sg7
g9
sg25
g26
sg35
Nsbag2
(g3
g4
NtRp4035
(dp4036
S'y'
I20
sS'x'
I49
sg7
g9
sg25
g26
sg35
Nsbag2
(g3
g4
NtRp4037
(dp4038
S'y'
I20
sS'x'
I50
sg7
g9
sg25
g26
sg35
Nsbag2
(g3
g4
NtRp4039
(dp4040
S'y'
I20
sS'x'
I51
sg7
g9
sg25
g26
sg35
Nsbag2
(g3
g4
NtRp4041
(dp4042
S'y'
I20
sS'x'
I52
sg7
g9
sg25
g26
sg35
Nsbag2
(g3
g4
NtRp4043
(dp4044
S'y'
I20
sS'x'
I53
sg7
g9
sg25
g26
sg35
Nsbag2
(g3
g4
NtRp4045
(dp4046
S'y'
I20
sS'x'
I54
sg7
g9
sg25
g26
sg35
Nsbag2
(g3
g4
NtRp4047
(dp4048
S'y'
I20
sS'x'
I55
sg7
g9
sg25
g26
sg35
Nsbag2
(g3
g4
NtRp4049
(dp4050
S'y'
I20
sS'x'
I56
sg7
g9
sg25
g26
sg35
Nsbag2
(g3
g4
NtRp4051
(dp4052
S'y'
I20
sS'x'
I57
sg7
g9
sg25
g26
sg35
Nsbag2
(g3
g4
NtRp4053
(dp4054
S'y'
I20
sS'x'
I58
sg7
g9
sg25
g26
sg35
Nsbag2
(g3
g4
NtRp4055
(dp4056
S'y'
I20
sS'x'
I59
sg7
g9
sg25
g26
sg35
Nsbag2
(g3
g4
NtRp4057
(dp4058
S'y'
I20
sS'x'
I60
sg7
g9
sg25
g26
sg35
Nsbag2
(g3
g4
NtRp4059
(dp4060
S'y'
I20
sS'x'
I61
sg7
g9
sg25
g26
sg35
Nsbag2
(g3
g4
NtRp4061
(dp4062
S'y'
I20
sS'x'
I62
sg7
g9
sg25
g26
sg35
Nsbag2
(g3
g4
NtRp4063
(dp4064
S'y'
I20
sS'x'
I63
sg7
g9
sg25
g26
sg35
Nsbag2
(g3
g4
NtRp4065
(dp4066
S'y'
I20
sS'x'
I64
sg7
g9
sg25
g26
sg35
Nsbag2
(g3
g4
NtRp4067
(dp4068
S'y'
I20
sS'x'
I65
sg7
g9
sg25
g26
sg35
Nsbag2
(g3
g4
NtRp4069
(dp4070
S'y'
I20
sS'x'
I66
sg7
g9
sg25
g26
sg35
Nsbag2
(g3
g4
NtRp4071
(dp4072
S'y'
I20
sS'x'
I67
sg7
g9
sg25
g26
sg35
Nsbag2
(g3
g4
NtRp4073
(dp4074
S'y'
I20
sS'x'
I68
sg7
g9
sg25
g26
sg35
Nsbag2
(g3
g4
NtRp4075
(dp4076
S'y'
I20
sS'x'
I69
sg7
g9
sg25
g26
sg35
Nsbag2
(g3
g4
NtRp4077
(dp4078
S'y'
I20
sS'x'
I70
sg7
g9
sg25
g26
sg35
Nsbag2
(g3
g4
NtRp4079
(dp4080
S'y'
I20
sS'x'
I71
sg7
g9
sg25
g26
sg35
Nsbag2
(g3
g4
NtRp4081
(dp4082
S'y'
I20
sS'x'
I72
sg7
g9
sg25
g26
sg35
Nsbag2
(g3
g4
NtRp4083
(dp4084
S'y'
I20
sS'x'
I73
sg7
g9
sg25
g26
sg35
Nsbag2
(g3
g4
NtRp4085
(dp4086
S'y'
I20
sS'x'
I74
sg7
g9
sg25
g26
sg35
Nsbag2
(g3
g4
NtRp4087
(dp4088
S'y'
I20
sS'x'
I75
sg7
g9
sg25
g26
sg35
Nsbag2
(g3
g4
NtRp4089
(dp4090
S'y'
I20
sS'x'
I76
sg7
g9
sg25
g26
sg35
Nsbag2
(g3
g4
NtRp4091
(dp4092
S'y'
I20
sS'x'
I77
sg7
g9
sg25
g26
sg35
Nsbag2
(g3
g4
NtRp4093
(dp4094
S'y'
I20
sS'x'
I78
sg7
g9
sg25
g26
sg35
Nsbag2
(g3
g4
NtRp4095
(dp4096
S'y'
I20
sS'x'
I79
sg7
g9
sg25
g26
sg35
Nsba.