(dp0
S'mountain'
p1
ccopy_reg
_reconstructor
p2
(ctile
Tile
p3
c__builtin__
object
p4
Ntp5
Rp6
(dp7
S'ch_memory'
p8
g2
(cchar
Char
p9
g4
Ntp10
Rp11
(dp12
S'color'
p13
I2097408
sS'symbol'
p14
S'^'
p15
sbsS'name'
p16
S'Mountains'
p17
sS'see_through'
p18
I01
sS'destroyable'
p19
I00
sS'ch_visible'
p20
g2
(g9
g4
Ntp21
Rp22
(dp23
g13
I2097408
sg14
g15
sbsS'passable'
p24
I00
sS'movement_cost'
p25
I1000
sbsS'hills'
p26
g2
(g3
g4
Ntp27
Rp28
(dp29
g8
g2
(g9
g4
Ntp30
Rp31
(dp32
g13
I1049600
sg14
S'~'
p33
sbsg16
S'Hills'
p34
sg18
I01
sg19
I00
sg20
g2
(g9
g4
Ntp35
Rp36
(dp37
g13
I1049600
sg14
g33
sbsg24
I01
sg25
I1000
sbsS'f'
p38
g2
(g3
g4
Ntp39
Rp40
(dp41
g8
g2
(g9
g4
Ntp42
Rp43
(dp44
g13
I0
sg14
S'.'
p45
sbsg16
S'Dungeon floor'
p46
sg18
I01
sg19
I00
sg20
g2
(g9
g4
Ntp47
Rp48
(dp49
g13
I0
sg14
g45
sbsg24
I01
sg25
I1000
sbsS'us'
p50
g2
(g3
g4
Ntp51
Rp52
(dp53
g8
g2
(g9
g4
Ntp54
Rp55
(dp56
g13
I0
sg14
S'<'
p57
sbsg16
S'Staircase going up'
p58
sg18
I01
sg19
I01
sg20
g2
(g9
g4
Ntp59
Rp60
(dp61
g13
I512
sg14
g57
sbsg24
I01
sg25
I1000
sbsS'high_mountain'
p62
g2
(g3
g4
Ntp63
Rp64
(dp65
g8
g2
(g9
g4
Ntp66
Rp67
(dp68
g13
I2097152
sg14
g15
sbsg16
S'High mountains'
p69
sg18
I00
sg19
I00
sg20
g2
(g9
g4
Ntp70
Rp71
(dp72
g13
I2097152
sg14
g15
sbsg24
I00
sg25
I1000
sbsS'ds'
p73
g2
(g3
g4
Ntp74
Rp75
(dp76
g8
g2
(g9
g4
Ntp77
Rp78
(dp79
g13
I0
sg14
S'>'
p80
sbsg16
S'D\x08Staircase going down'
p81
sg18
I01
sg19
I00
sg20
g2
(g9
g4
Ntp82
Rp83
(dp84
g13
I512
sg14
g80
sbsg24
I01
sg25
I1000
sbsS'swamp'
p85
g2
(g3
g4
Ntp86
Rp87
(dp88
g8
g2
(g9
g4
Ntp89
Rp90
(dp91
g13
I768
sg14
S'"'
p92
sbsg16
S'Swamp'
p93
sg18
I01
sg19
I00
sg20
g2
(g9
g4
Ntp94
Rp95
(dp96
g13
I768
sg14
g92
sbsg24
I01
sg25
I1000
sbsS'r'
p97
g2
(g3
g4
Ntp98
Rp99
(dp100
g8
g2
(g9
g4
Ntp101
Rp102
(dp103
g13
I2097408
sg14
S'#'
p104
sbsg16
S'Granite rock'
p105
sg18
I00
sg19
I01
sg20
g2
(g9
g4
Ntp106
Rp107
(dp108
g13
I2097408
sg14
g104
sbsg24
I00
sg25
I1000
sbsS'u'
p109
g2
(g3
g4
Ntp110
Rp111
(dp112
g8
g2
(g9
g4
Ntp113
Rp114
(dp115
g13
I0
sg14
S' '
p116
sbsg16
S'You have not seen this place yet'
p117
sg18
I00
sg19
I00
sg20
g2
(g9
g4
Ntp118
Rp119
(dp120
g13
I0
sg14
g116
sbsg24
I00
sg25
I1000
sbsS'forest'
p121
g2
(g3
g4
Ntp122
Rp123
(dp124
g8
g2
(g9
g4
Ntp125
Rp126
(dp127
g13
I768
sg14
S'&'
p128
sbsg16
S'Forest'
p129
sg18
I01
sg19
I00
sg20
g2
(g9
g4
Ntp130
Rp131
(dp132
g13
I768
sg14
g128
sbsg24
I01
sg25
I1000
sbsS'w'
p133
g2
(g3
g4
Ntp134
Rp135
(dp136
g8
g2
(g9
g4
Ntp137
Rp138
(dp139
g13
I2097408
sg14
g104
sbsg16
S'Wall'
p140
sg18
I00
sg19
I01
sg20
g2
(g9
g4
Ntp141
Rp142
(dp143
g13
I1049600
sg14
g104
sbsg24
I00
sg25
I1000
sbsS'river'
p144
g2
(g3
g4
Ntp145
Rp146
(dp147
g8
g2
(g9
g4
Ntp148
Rp149
(dp150
g13
I1280
sg14
S'='
p151
sbsg16
S'River'
p152
sg18
I00
sg19
I00
sg20
g2
(g9
g4
Ntp153
Rp154
(dp155
g13
I1280
sg14
g151
sbsg24
I00
sg25
I1000
sbsS'plains'
p156
g2
(g3
g4
Ntp157
Rp158
(dp159
g8
g2
(g9
g4
Ntp160
Rp161
(dp162
g13
I2097920
sg14
g92
sbsg16
S'Plains'
p163
sg18
I01
sg19
I00
sg20
g2
(g9
g4
Ntp164
Rp165
(dp166
g13
I2097920
sg14
g92
sbsg24
I01
sg25
I1000
sbsS'road'
p167
g2
(g3
g4
Ntp168
Rp169
(dp170
g8
g2
(g9
g4
Ntp171
Rp172
(dp173
g13
I1049600
sg14
g45
sbsg16
S'A derelict road'
p174
sg18
I01
sg19
I00
sg20
g2
(g9
g4
Ntp175
Rp176
(dp177
g13
I1049600
sg14
g45
sbsg24
I01
sg25
I1000
sbs.